---
triple:          'arm64-apple-darwin'
binary-path:     '/Users/ankitmaskara/Desktop/vscode/D_Small_GCD'
relocations:
  - { offsetInCU: 0x3F, offset: 0x3F, size: 0x8, addend: 0x0, symName: _factors, symObjAddr: 0x53BA8, symBinAddr: 0x10000C000, symSize: 0x0 }
  - { offsetInCU: 0x3D37, offset: 0x3D37, size: 0x8, addend: 0x0, symName: __ZNSt3__1L19piecewise_constructE, symObjAddr: 0x6D59, symBinAddr: 0x100007A95, symSize: 0x0 }
  - { offsetInCU: 0xA8F3, offset: 0xA8F3, size: 0x8, addend: 0x0, symName: __ZNSt3__124__put_character_sequenceB7v160006IcNS_11char_traitsIcEEEERNS_13basic_ostreamIT_T0_EES7_PKS4_m, symObjAddr: 0x5F8C, symBinAddr: 0x1000069F4, symSize: 0x1EC }
  - { offsetInCU: 0xC51A, offset: 0xC51A, size: 0x8, addend: 0x0, symName: __ZNSt3__14sortB7v160006INS_11__wrap_iterIPxEEEEvT_S4_, symObjAddr: 0x724, symBinAddr: 0x10000118C, symSize: 0x3C }
  - { offsetInCU: 0xC55C, offset: 0xC55C, size: 0x8, addend: 0x0, symName: __ZNSt3__1eqB7v160006ERKNS_14__map_iteratorINS_15__tree_iteratorINS_12__value_typeIxxEEPNS_11__tree_nodeIS3_PvEElEEEESB_, symObjAddr: 0x86C, symBinAddr: 0x1000012D4, symSize: 0x30 }
  - { offsetInCU: 0xC599, offset: 0xC599, size: 0x8, addend: 0x0, symName: __ZNSt3__1neB7v160006ERKNS_14__map_iteratorINS_15__tree_iteratorINS_12__value_typeIxxEEPNS_11__tree_nodeIS3_PvEElEEEESB_, symObjAddr: 0x914, symBinAddr: 0x10000137C, symSize: 0x30 }
  - { offsetInCU: 0xC5D6, offset: 0xC5D6, size: 0x8, addend: 0x0, symName: __ZNSt3__1lsB7v160006INS_11char_traitsIcEEEERNS_13basic_ostreamIcT_EES6_PKc, symObjAddr: 0x944, symBinAddr: 0x1000013AC, symSize: 0x48 }
  - { offsetInCU: 0xC61C, offset: 0xC61C, size: 0x8, addend: 0x0, symName: __ZNSt3__119__debug_db_insert_cB7v160006INS_6vectorINS_13unordered_setIxNS_4hashIxEENS_8equal_toIxEENS_9allocatorIxEEEENS7_IS9_EEEEEEvPT_, symObjAddr: 0xA84, symBinAddr: 0x1000014EC, symSize: 0x10 }
  - { offsetInCU: 0xC64D, offset: 0xC64D, size: 0x8, addend: 0x0, symName: __ZNSt3__118__debug_db_erase_cB7v160006INS_6vectorINS_13unordered_setIxNS_4hashIxEENS_8equal_toIxEENS_9allocatorIxEEEENS7_IS9_EEEEEEvPT_, symObjAddr: 0xD64, symBinAddr: 0x1000017CC, symSize: 0x10 }
  - { offsetInCU: 0xC67E, offset: 0xC67E, size: 0x8, addend: 0x0, symName: __ZNSt3__112__to_addressB7v160006INS_13unordered_setIxNS_4hashIxEENS_8equal_toIxEENS_9allocatorIxEEEEEEPT_SA_, symObjAddr: 0xEA8, symBinAddr: 0x100001910, symSize: 0x14 }
  - { offsetInCU: 0xC6B3, offset: 0xC6B3, size: 0x8, addend: 0x0, symName: __ZNSt3__118__debug_db_erase_cB7v160006INS_12__hash_tableIxNS_4hashIxEENS_8equal_toIxEENS_9allocatorIxEEEEEEvPT_, symObjAddr: 0x1144, symBinAddr: 0x100001BAC, symSize: 0x10 }
  - { offsetInCU: 0xC717, offset: 0xC717, size: 0x8, addend: 0x0, symName: __ZNSt3__119__libcpp_deallocateB7v160006EPvmm, symObjAddr: 0x12B8, symBinAddr: 0x100001D20, symSize: 0x30 }
  - { offsetInCU: 0xC75F, offset: 0xC75F, size: 0x8, addend: 0x0, symName: __ZNSt3__127__do_deallocate_handle_sizeB7v160006IJEEEvPvmDpT_, symObjAddr: 0x12E8, symBinAddr: 0x100001D50, symSize: 0x28 }
  - { offsetInCU: 0xC79D, offset: 0xC79D, size: 0x8, addend: 0x0, symName: __ZNSt3__124__libcpp_operator_deleteB7v160006IJPvEEEvDpT_, symObjAddr: 0x1310, symBinAddr: 0x100001D78, symSize: 0x24 }
  - { offsetInCU: 0xC7D2, offset: 0xC7D2, size: 0x8, addend: 0x0, symName: __ZNSt3__116__constrain_hashB7v160006Emm, symObjAddr: 0x1C84, symBinAddr: 0x1000026EC, symSize: 0x98 }
  - { offsetInCU: 0xC80C, offset: 0xC80C, size: 0x8, addend: 0x0, symName: __ZNSt3__13maxB7v160006ImEERKT_S3_S3_, symObjAddr: 0x1F78, symBinAddr: 0x1000029E0, symSize: 0x2C }
  - { offsetInCU: 0xC84F, offset: 0xC84F, size: 0x8, addend: 0x0, symName: __ZNSt3__116__is_hash_power2B7v160006Em, symObjAddr: 0x1FA4, symBinAddr: 0x100002A0C, symSize: 0x50 }
  - { offsetInCU: 0xC899, offset: 0xC899, size: 0x8, addend: 0x0, symName: __ZNSt3__117__libcpp_allocateB7v160006Emm, symObjAddr: 0x248C, symBinAddr: 0x100002EF4, symSize: 0x28 }
  - { offsetInCU: 0xC8D6, offset: 0xC8D6, size: 0x8, addend: 0x0, symName: __ZNSt3__121__libcpp_operator_newB7v160006IJmEEEPvDpT_, symObjAddr: 0x24CC, symBinAddr: 0x100002F34, symSize: 0x24 }
  - { offsetInCU: 0xC90F, offset: 0xC90F, size: 0x8, addend: 0x0, symName: __ZNSt3__116__next_hash_pow2B7v160006Em, symObjAddr: 0x2B34, symBinAddr: 0x10000359C, symSize: 0x6C }
  - { offsetInCU: 0xC93B, offset: 0xC93B, size: 0x8, addend: 0x0, symName: __ZNSt3__125__debug_db_invalidate_allB7v160006INS_12__hash_tableIxNS_4hashIxEENS_8equal_toIxEENS_9allocatorIxEEEEEEvPT_, symObjAddr: 0x2BA0, symBinAddr: 0x100003608, symSize: 0x10 }
  - { offsetInCU: 0xC988, offset: 0xC988, size: 0x8, addend: 0x0, symName: __ZNSt3__112__libcpp_clzB7v160006Em, symObjAddr: 0x2D08, symBinAddr: 0x100003770, symSize: 0x1C }
  - { offsetInCU: 0xC9B4, offset: 0xC9B4, size: 0x8, addend: 0x0, symName: __ZNSt3__13maxB7v160006ImNS_6__lessImmEEEERKT_S5_S5_T0_, symObjAddr: 0x2D24, symBinAddr: 0x10000378C, symSize: 0x54 }
  - { offsetInCU: 0xCA49, offset: 0xCA49, size: 0x8, addend: 0x0, symName: __ZNSt3__122__make_exception_guardB7v160006INS_6vectorIxNS_9allocatorIxEEE16__destroy_vectorEEENS_28__exception_guard_exceptionsIT_EES7_, symObjAddr: 0x3160, symBinAddr: 0x100003BC8, symSize: 0x40 }
  - { offsetInCU: 0xCA7E, offset: 0xCA7E, size: 0x8, addend: 0x0, symName: __ZNSt3__119__debug_db_insert_cB7v160006INS_6vectorIxNS_9allocatorIxEEEEEEvPT_, symObjAddr: 0x31D4, symBinAddr: 0x100003C3C, symSize: 0x10 }
  - { offsetInCU: 0xCAAF, offset: 0xCAAF, size: 0x8, addend: 0x0, symName: __ZNSt3__119__allocate_at_leastB7v160006INS_9allocatorIxEEEENS_19__allocation_resultINS_16allocator_traitsIT_E7pointerEEERS5_m, symObjAddr: 0x355C, symBinAddr: 0x100003FC4, symSize: 0x40 }
  - { offsetInCU: 0xCAF2, offset: 0xCAF2, size: 0x8, addend: 0x0, symName: __ZNSt3__13minB7v160006ImEERKT_S3_S3_, symObjAddr: 0x3698, symBinAddr: 0x100004100, symSize: 0x2C }
  - { offsetInCU: 0xCD36, offset: 0xCD36, size: 0x8, addend: 0x0, symName: __ZNSt3__13minB7v160006ImNS_6__lessImmEEEERKT_S5_S5_T0_, symObjAddr: 0x3724, symBinAddr: 0x10000418C, symSize: 0x54 }
  - { offsetInCU: 0xCD90, offset: 0xCD90, size: 0x8, addend: 0x0, symName: __ZNSt3__120__throw_length_errorB7v160006EPKc, symObjAddr: 0x37CC, symBinAddr: 0x100004234, symSize: 0x64 }
  - { offsetInCU: 0xCDB8, offset: 0xCDB8, size: 0x8, addend: 0x0, symName: __ZNSt3__112__to_addressB7v160006IxEEPT_S2_, symObjAddr: 0x3A00, symBinAddr: 0x100004468, symSize: 0x14 }
  - { offsetInCU: 0xCDED, offset: 0xCDED, size: 0x8, addend: 0x0, symName: __ZNSt3__118__debug_db_erase_cB7v160006INS_6vectorIxNS_9allocatorIxEEEEEEvPT_, symObjAddr: 0x3D2C, symBinAddr: 0x100004794, symSize: 0x10 }
  - { offsetInCU: 0xCE1E, offset: 0xCE1E, size: 0x8, addend: 0x0, symName: __ZNSt3__14sortB7v160006INS_11__wrap_iterIPxEENS_6__lessIxxEEEEvT_S6_T0_, symObjAddr: 0x3FA4, symBinAddr: 0x100004A0C, symSize: 0x40 }
  - { offsetInCU: 0xCE78, offset: 0xCE78, size: 0x8, addend: 0x0, symName: __ZNSt3__111__sort_implB7v160006INS_17_ClassicAlgPolicyENS_11__wrap_iterIPxEENS_6__lessIxxEEEEvT0_S7_RT1_, symObjAddr: 0x3FE4, symBinAddr: 0x100004A4C, symSize: 0x84 }
  - { offsetInCU: 0xCF1F, offset: 0xCF1F, size: 0x8, addend: 0x0, symName: __ZNSt3__123__debug_randomize_rangeB7v160006INS_17_ClassicAlgPolicyENS_11__wrap_iterIPxEES4_EEvT0_T1_, symObjAddr: 0x4068, symBinAddr: 0x100004AD0, symSize: 0x14 }
  - { offsetInCU: 0xCF70, offset: 0xCF70, size: 0x8, addend: 0x0, symName: __ZNSt3__113__unwrap_iterB7v160006INS_11__wrap_iterIPxEENS_18__unwrap_iter_implIS3_Lb1EEELi0EEEDTclsrT0_8__unwrapclsr3stdE7declvalIT_EEEES7_, symObjAddr: 0x407C, symBinAddr: 0x100004AE4, symSize: 0x2C }
  - { offsetInCU: 0xD007, offset: 0xD007, size: 0x8, addend: 0x0, symName: __ZNSt3__112__to_addressB7v160006INS_11__wrap_iterIPxEEvEENS_5decayIDTclsr19__to_address_helperIT_EE6__callclsr3stdE7declvalIRKS5_EEEEE4typeES7_, symObjAddr: 0x40D0, symBinAddr: 0x100004B38, symSize: 0x24 }
  - { offsetInCU: 0xD150, offset: 0xD150, size: 0x8, addend: 0x0, symName: __ZNSt3__116forward_as_tupleB7v160006IJRKxEEENS_5tupleIJDpOT_EEES6_, symObjAddr: 0x4908, symBinAddr: 0x100005370, symSize: 0x2C }
  - { offsetInCU: 0xD189, offset: 0xD189, size: 0x8, addend: 0x0, symName: __ZNSt3__116forward_as_tupleB7v160006IJEEENS_5tupleIJDpOT_EEES4_, symObjAddr: 0x4934, symBinAddr: 0x10000539C, symSize: 0x4 }
  - { offsetInCU: 0xD1D6, offset: 0xD1D6, size: 0x8, addend: 0x0, symName: __ZNSt3__13getB7v160006ILm0EJRKxEEERNS_13tuple_elementIXT_ENS_5tupleIJDpT0_EEEE4typeERS7_, symObjAddr: 0x5370, symBinAddr: 0x100005DD8, symSize: 0x24 }
  - { offsetInCU: 0xD219, offset: 0xD219, size: 0x8, addend: 0x0, symName: __ZNSt3__127__tree_balance_after_insertB7v160006IPNS_16__tree_node_baseIPvEEEEvT_S5_, symObjAddr: 0x5420, symBinAddr: 0x100005E88, symSize: 0x32C }
  - { offsetInCU: 0xD295, offset: 0xD295, size: 0x8, addend: 0x0, symName: __ZNSt3__120__tree_is_left_childB7v160006IPNS_16__tree_node_baseIPvEEEEbT_, symObjAddr: 0x578C, symBinAddr: 0x1000061F4, symSize: 0x2C }
  - { offsetInCU: 0xD2CA, offset: 0xD2CA, size: 0x8, addend: 0x0, symName: __ZNSt3__118__tree_left_rotateB7v160006IPNS_16__tree_node_baseIPvEEEEvT_, symObjAddr: 0x57B8, symBinAddr: 0x100006220, symSize: 0xD8 }
  - { offsetInCU: 0xD30C, offset: 0xD30C, size: 0x8, addend: 0x0, symName: __ZNSt3__119__tree_right_rotateB7v160006IPNS_16__tree_node_baseIPvEEEEvT_, symObjAddr: 0x5890, symBinAddr: 0x1000062F8, symSize: 0xCC }
  - { offsetInCU: 0xD3A5, offset: 0xD3A5, size: 0x8, addend: 0x0, symName: __ZNSt3__1neB7v160006ERKNS_15__tree_iteratorINS_12__value_typeIxxEEPNS_11__tree_nodeIS2_PvEElEES9_, symObjAddr: 0x5E58, symBinAddr: 0x1000068C0, symSize: 0x34 }
  - { offsetInCU: 0xD3E2, offset: 0xD3E2, size: 0x8, addend: 0x0, symName: __ZNSt3__1eqB7v160006ERKNS_15__tree_iteratorINS_12__value_typeIxxEEPNS_11__tree_nodeIS2_PvEElEES9_, symObjAddr: 0x5F3C, symBinAddr: 0x1000069A4, symSize: 0x30 }
  - { offsetInCU: 0xD41F, offset: 0xD41F, size: 0x8, addend: 0x0, symName: __ZNSt3__116__pad_and_outputB7v160006IcNS_11char_traitsIcEEEENS_19ostreambuf_iteratorIT_T0_EES6_PKS4_S8_S8_RNS_8ios_baseES4_, symObjAddr: 0x61C8, symBinAddr: 0x100006C30, symSize: 0x240 }
  - { offsetInCU: 0xD4EE, offset: 0xD4EE, size: 0x8, addend: 0x0, symName: __ZNSt3__119__debug_db_insert_cB7v160006INS_12basic_stringIcNS_11char_traitsIcEENS_9allocatorIcEEEEEEvPT_, symObjAddr: 0x667C, symBinAddr: 0x1000070E4, symSize: 0x10 }
  - { offsetInCU: 0xD51F, offset: 0xD51F, size: 0x8, addend: 0x0, symName: __ZNSt3__112__to_addressB7v160006IKcEEPT_S3_, symObjAddr: 0x6748, symBinAddr: 0x1000071B0, symSize: 0x14 }
  - { offsetInCU: 0xD587, offset: 0xD587, size: 0x8, addend: 0x0, symName: __ZNSt3__19use_facetB7v160006INS_5ctypeIcEEEERKT_RKNS_6localeE, symObjAddr: 0x69C8, symBinAddr: 0x100007430, symSize: 0x2C }
  - { offsetInCU: 0xDA56, offset: 0xDA56, size: 0x8, addend: 0x0, symName: __ZNSt3__118__constexpr_strlenB7v160006EPKc, symObjAddr: 0x6A60, symBinAddr: 0x1000074C8, symSize: 0x24 }
  - { offsetInCU: 0xDDD8, offset: 0xDDD8, size: 0x8, addend: 0x0, symName: __ZSt28__throw_bad_array_new_lengthB7v160006v, symObjAddr: 0x2458, symBinAddr: 0x100002EC0, symSize: 0x34 }
  - { offsetInCU: 0x11285, offset: 0x11285, size: 0x8, addend: 0x0, symName: __Z5powerxx, symObjAddr: 0x0, symBinAddr: 0x100000A68, symSize: 0xAC }
  - { offsetInCU: 0x112CE, offset: 0x112CE, size: 0x8, addend: 0x0, symName: __Z3modx, symObjAddr: 0xAC, symBinAddr: 0x100000B14, symSize: 0x2C }
  - { offsetInCU: 0x112FA, offset: 0x112FA, size: 0x8, addend: 0x0, symName: __Z5__gcdxx, symObjAddr: 0xD8, symBinAddr: 0x100000B40, symSize: 0x68 }
  - { offsetInCU: 0x11335, offset: 0x11335, size: 0x8, addend: 0x0, symName: __ZNSt3__16vectorINS_13unordered_setIxNS_4hashIxEENS_8equal_toIxEENS_9allocatorIxEEEENS6_IS8_EEEC1B7v160006Ev, symObjAddr: 0x140, symBinAddr: 0x100000BA8, symSize: 0x2C }
  - { offsetInCU: 0x1135F, offset: 0x1135F, size: 0x8, addend: 0x0, symName: __ZNSt3__16vectorINS_13unordered_setIxNS_4hashIxEENS_8equal_toIxEENS_9allocatorIxEEEENS6_IS8_EEED1B7v160006Ev, symObjAddr: 0x16C, symBinAddr: 0x100000BD4, symSize: 0x2C }
  - { offsetInCU: 0x11389, offset: 0x11389, size: 0x8, addend: 0x0, symName: __Z3prev, symObjAddr: 0x198, symBinAddr: 0x100000C00, symSize: 0xB4 }
  - { offsetInCU: 0x113DE, offset: 0x113DE, size: 0x8, addend: 0x0, symName: __ZNSt3__16vectorINS_13unordered_setIxNS_4hashIxEENS_8equal_toIxEENS_9allocatorIxEEEENS6_IS8_EEEixB7v160006Em, symObjAddr: 0x24C, symBinAddr: 0x100000CB4, symSize: 0x2C }
  - { offsetInCU: 0x11415, offset: 0x11415, size: 0x8, addend: 0x0, symName: __ZNSt3__113unordered_setIxNS_4hashIxEENS_8equal_toIxEENS_9allocatorIxEEE6insertB7v160006ERKx, symObjAddr: 0x278, symBinAddr: 0x100000CE0, symSize: 0x4C }
  - { offsetInCU: 0x1144A, offset: 0x1144A, size: 0x8, addend: 0x0, symName: _main, symObjAddr: 0x2C4, symBinAddr: 0x100000D2C, symSize: 0x3DC }
  - { offsetInCU: 0x11584, offset: 0x11584, size: 0x8, addend: 0x0, symName: __ZNSt3__19basic_iosIcNS_11char_traitsIcEEE3tieB7v160006EPNS_13basic_ostreamIcS2_EE, symObjAddr: 0x6A0, symBinAddr: 0x100001108, symSize: 0x2C }
  - { offsetInCU: 0x115CA, offset: 0x115CA, size: 0x8, addend: 0x0, symName: __ZNSt3__16vectorIxNS_9allocatorIxEEEC1Em, symObjAddr: 0x6CC, symBinAddr: 0x100001134, symSize: 0x34 }
  - { offsetInCU: 0x11605, offset: 0x11605, size: 0x8, addend: 0x0, symName: __ZNSt3__16vectorIxNS_9allocatorIxEEEixB7v160006Em, symObjAddr: 0x700, symBinAddr: 0x100001168, symSize: 0x24 }
  - { offsetInCU: 0x1163C, offset: 0x1163C, size: 0x8, addend: 0x0, symName: __ZNSt3__16vectorIxNS_9allocatorIxEEE5beginB7v160006Ev, symObjAddr: 0x760, symBinAddr: 0x1000011C8, symSize: 0x30 }
  - { offsetInCU: 0x11664, offset: 0x11664, size: 0x8, addend: 0x0, symName: __ZNSt3__16vectorIxNS_9allocatorIxEEE3endB7v160006Ev, symObjAddr: 0x790, symBinAddr: 0x1000011F8, symSize: 0x30 }
  - { offsetInCU: 0x1168C, offset: 0x1168C, size: 0x8, addend: 0x0, symName: __ZNSt3__13mapIxxNS_4lessIxEENS_9allocatorINS_4pairIKxxEEEEEC1B7v160006Ev, symObjAddr: 0x7C0, symBinAddr: 0x100001228, symSize: 0x2C }
  - { offsetInCU: 0x116B6, offset: 0x116B6, size: 0x8, addend: 0x0, symName: __ZNSt3__13mapIxxNS_4lessIxEENS_9allocatorINS_4pairIKxxEEEEEixERS5_, symObjAddr: 0x7EC, symBinAddr: 0x100001254, symSize: 0x80 }
  - { offsetInCU: 0x116ED, offset: 0x116ED, size: 0x8, addend: 0x0, symName: __ZNSt3__13mapIxxNS_4lessIxEENS_9allocatorINS_4pairIKxxEEEEE4findB7v160006ERS5_, symObjAddr: 0x89C, symBinAddr: 0x100001304, symSize: 0x40 }
  - { offsetInCU: 0x11722, offset: 0x11722, size: 0x8, addend: 0x0, symName: __ZNSt3__13mapIxxNS_4lessIxEENS_9allocatorINS_4pairIKxxEEEEE3endB7v160006Ev, symObjAddr: 0x8DC, symBinAddr: 0x100001344, symSize: 0x38 }
  - { offsetInCU: 0x11748, offset: 0x11748, size: 0x8, addend: 0x0, symName: __ZNSt3__13mapIxxNS_4lessIxEENS_9allocatorINS_4pairIKxxEEEEED1B7v160006Ev, symObjAddr: 0x98C, symBinAddr: 0x1000013F4, symSize: 0x2C }
  - { offsetInCU: 0x11772, offset: 0x11772, size: 0x8, addend: 0x0, symName: __ZNSt3__16vectorIxNS_9allocatorIxEEED1B7v160006Ev, symObjAddr: 0x9B8, symBinAddr: 0x100001420, symSize: 0x2C }
  - { offsetInCU: 0x1179C, offset: 0x1179C, size: 0x8, addend: 0x0, symName: __ZNSt3__16vectorINS_13unordered_setIxNS_4hashIxEENS_8equal_toIxEENS_9allocatorIxEEEENS6_IS8_EEEC2B7v160006Ev, symObjAddr: 0x9E4, symBinAddr: 0x10000144C, symSize: 0x58 }
  - { offsetInCU: 0x117D0, offset: 0x117D0, size: 0x8, addend: 0x0, symName: __ZNSt3__117__compressed_pairIPNS_13unordered_setIxNS_4hashIxEENS_8equal_toIxEENS_9allocatorIxEEEENS6_IS8_EEEC1B7v160006IDnNS_18__default_init_tagEEEOT_OT0_, symObjAddr: 0xA3C, symBinAddr: 0x1000014A4, symSize: 0x3C }
  - { offsetInCU: 0x11828, offset: 0x11828, size: 0x8, addend: 0x0, symName: __ZNSt3__117__compressed_pairIPNS_13unordered_setIxNS_4hashIxEENS_8equal_toIxEENS_9allocatorIxEEEENS6_IS8_EEEC2B7v160006IDnNS_18__default_init_tagEEEOT_OT0_, symObjAddr: 0xA94, symBinAddr: 0x1000014FC, symSize: 0x40 }
  - { offsetInCU: 0x11880, offset: 0x11880, size: 0x8, addend: 0x0, symName: __ZNSt3__122__compressed_pair_elemIPNS_13unordered_setIxNS_4hashIxEENS_8equal_toIxEENS_9allocatorIxEEEELi0ELb0EEC2B7v160006IDnvEEOT_, symObjAddr: 0xAD4, symBinAddr: 0x10000153C, symSize: 0x1C }
  - { offsetInCU: 0x118C2, offset: 0x118C2, size: 0x8, addend: 0x0, symName: __ZNSt3__122__compressed_pair_elemINS_9allocatorINS_13unordered_setIxNS_4hashIxEENS_8equal_toIxEENS1_IxEEEEEELi1ELb1EEC2B7v160006ENS_18__default_init_tagE, symObjAddr: 0xAF0, symBinAddr: 0x100001558, symSize: 0x2C }
  - { offsetInCU: 0x118F7, offset: 0x118F7, size: 0x8, addend: 0x0, symName: __ZNSt3__19allocatorINS_13unordered_setIxNS_4hashIxEENS_8equal_toIxEENS0_IxEEEEEC2B7v160006Ev, symObjAddr: 0xB1C, symBinAddr: 0x100001584, symSize: 0x2C }
  - { offsetInCU: 0x11921, offset: 0x11921, size: 0x8, addend: 0x0, symName: __ZNSt3__116__non_trivial_ifILb1ENS_9allocatorINS_13unordered_setIxNS_4hashIxEENS_8equal_toIxEENS1_IxEEEEEEEC2B7v160006Ev, symObjAddr: 0xB48, symBinAddr: 0x1000015B0, symSize: 0x14 }
  - { offsetInCU: 0x1194B, offset: 0x1194B, size: 0x8, addend: 0x0, symName: __ZNSt3__16vectorINS_13unordered_setIxNS_4hashIxEENS_8equal_toIxEENS_9allocatorIxEEEENS6_IS8_EEED2B7v160006Ev, symObjAddr: 0xB5C, symBinAddr: 0x1000015C4, symSize: 0x44 }
  - { offsetInCU: 0x11975, offset: 0x11975, size: 0x8, addend: 0x0, symName: __ZNSt3__16vectorINS_13unordered_setIxNS_4hashIxEENS_8equal_toIxEENS_9allocatorIxEEEENS6_IS8_EEE16__destroy_vectorC1ERSA_, symObjAddr: 0xBA0, symBinAddr: 0x100001608, symSize: 0x34 }
  - { offsetInCU: 0x119AE, offset: 0x119AE, size: 0x8, addend: 0x0, symName: __ZNSt3__16vectorINS_13unordered_setIxNS_4hashIxEENS_8equal_toIxEENS_9allocatorIxEEEENS6_IS8_EEE16__destroy_vectorclB7v160006Ev, symObjAddr: 0xBD4, symBinAddr: 0x10000163C, symSize: 0x9C }
  - { offsetInCU: 0x119D4, offset: 0x119D4, size: 0x8, addend: 0x0, symName: __ZNSt3__16vectorINS_13unordered_setIxNS_4hashIxEENS_8equal_toIxEENS_9allocatorIxEEEENS6_IS8_EEE16__destroy_vectorC2ERSA_, symObjAddr: 0xC70, symBinAddr: 0x1000016D8, symSize: 0x20 }
  - { offsetInCU: 0x11A0D, offset: 0x11A0D, size: 0x8, addend: 0x0, symName: __ZNKSt3__16vectorINS_13unordered_setIxNS_4hashIxEENS_8equal_toIxEENS_9allocatorIxEEEENS6_IS8_EEE17__annotate_deleteB7v160006Ev, symObjAddr: 0xC90, symBinAddr: 0x1000016F8, symSize: 0xD4 }
  - { offsetInCU: 0x11A33, offset: 0x11A33, size: 0x8, addend: 0x0, symName: __ZNSt3__16vectorINS_13unordered_setIxNS_4hashIxEENS_8equal_toIxEENS_9allocatorIxEEEENS6_IS8_EEE7__clearB7v160006Ev, symObjAddr: 0xD74, symBinAddr: 0x1000017DC, symSize: 0x28 }
  - { offsetInCU: 0x11A59, offset: 0x11A59, size: 0x8, addend: 0x0, symName: __ZNSt3__116allocator_traitsINS_9allocatorINS_13unordered_setIxNS_4hashIxEENS_8equal_toIxEENS1_IxEEEEEEE10deallocateB7v160006ERS9_PS8_m, symObjAddr: 0xD9C, symBinAddr: 0x100001804, symSize: 0x34 }
  - { offsetInCU: 0x11A9B, offset: 0x11A9B, size: 0x8, addend: 0x0, symName: __ZNSt3__16vectorINS_13unordered_setIxNS_4hashIxEENS_8equal_toIxEENS_9allocatorIxEEEENS6_IS8_EEE7__allocB7v160006Ev, symObjAddr: 0xDD0, symBinAddr: 0x100001838, symSize: 0x28 }
  - { offsetInCU: 0x11AC1, offset: 0x11AC1, size: 0x8, addend: 0x0, symName: __ZNKSt3__16vectorINS_13unordered_setIxNS_4hashIxEENS_8equal_toIxEENS_9allocatorIxEEEENS6_IS8_EEE8capacityB7v160006Ev, symObjAddr: 0xDF8, symBinAddr: 0x100001860, symSize: 0x40 }
  - { offsetInCU: 0x11AE7, offset: 0x11AE7, size: 0x8, addend: 0x0, symName: __ZNKSt3__16vectorINS_13unordered_setIxNS_4hashIxEENS_8equal_toIxEENS_9allocatorIxEEEENS6_IS8_EEE31__annotate_contiguous_containerB7v160006EPKvSC_SC_SC_, symObjAddr: 0xE38, symBinAddr: 0x1000018A0, symSize: 0x20 }
  - { offsetInCU: 0x11B3D, offset: 0x11B3D, size: 0x8, addend: 0x0, symName: __ZNKSt3__16vectorINS_13unordered_setIxNS_4hashIxEENS_8equal_toIxEENS_9allocatorIxEEEENS6_IS8_EEE4dataB7v160006Ev, symObjAddr: 0xE58, symBinAddr: 0x1000018C0, symSize: 0x28 }
  - { offsetInCU: 0x11B63, offset: 0x11B63, size: 0x8, addend: 0x0, symName: __ZNKSt3__16vectorINS_13unordered_setIxNS_4hashIxEENS_8equal_toIxEENS_9allocatorIxEEEENS6_IS8_EEE4sizeB7v160006Ev, symObjAddr: 0xE80, symBinAddr: 0x1000018E8, symSize: 0x28 }
  - { offsetInCU: 0x11B89, offset: 0x11B89, size: 0x8, addend: 0x0, symName: __ZNSt3__16vectorINS_13unordered_setIxNS_4hashIxEENS_8equal_toIxEENS_9allocatorIxEEEENS6_IS8_EEE22__base_destruct_at_endB7v160006EPS8_, symObjAddr: 0xEBC, symBinAddr: 0x100001924, symSize: 0x8C }
  - { offsetInCU: 0x11BCD, offset: 0x11BCD, size: 0x8, addend: 0x0, symName: __ZNSt3__116allocator_traitsINS_9allocatorINS_13unordered_setIxNS_4hashIxEENS_8equal_toIxEENS1_IxEEEEEEE7destroyB7v160006IS8_vEEvRS9_PT_, symObjAddr: 0xF48, symBinAddr: 0x1000019B0, symSize: 0x2C }
  - { offsetInCU: 0x11C0A, offset: 0x11C0A, size: 0x8, addend: 0x0, symName: __ZNSt3__19allocatorINS_13unordered_setIxNS_4hashIxEENS_8equal_toIxEENS0_IxEEEEE7destroyB7v160006EPS7_, symObjAddr: 0xF74, symBinAddr: 0x1000019DC, symSize: 0x28 }
  - { offsetInCU: 0x11C3E, offset: 0x11C3E, size: 0x8, addend: 0x0, symName: __ZNSt3__113unordered_setIxNS_4hashIxEENS_8equal_toIxEENS_9allocatorIxEEED1B7v160006Ev, symObjAddr: 0xF9C, symBinAddr: 0x100001A04, symSize: 0x2C }
  - { offsetInCU: 0x11C68, offset: 0x11C68, size: 0x8, addend: 0x0, symName: __ZNSt3__113unordered_setIxNS_4hashIxEENS_8equal_toIxEENS_9allocatorIxEEED2B7v160006Ev, symObjAddr: 0xFC8, symBinAddr: 0x100001A30, symSize: 0x2C }
  - { offsetInCU: 0x11C92, offset: 0x11C92, size: 0x8, addend: 0x0, symName: __ZNSt3__112__hash_tableIxNS_4hashIxEENS_8equal_toIxEENS_9allocatorIxEEED1Ev, symObjAddr: 0xFF4, symBinAddr: 0x100001A5C, symSize: 0x2C }
  - { offsetInCU: 0x11CBE, offset: 0x11CBE, size: 0x8, addend: 0x0, symName: __ZNSt3__112__hash_tableIxNS_4hashIxEENS_8equal_toIxEENS_9allocatorIxEEED2Ev, symObjAddr: 0x1020, symBinAddr: 0x100001A88, symSize: 0x58 }
  - { offsetInCU: 0x11CEA, offset: 0x11CEA, size: 0x8, addend: 0x0, symName: __ZNSt3__112__hash_tableIxNS_4hashIxEENS_8equal_toIxEENS_9allocatorIxEEE17__deallocate_nodeEPNS_16__hash_node_baseIPNS_11__hash_nodeIxPvEEEE, symObjAddr: 0x1078, symBinAddr: 0x100001AE0, symSize: 0xA8 }
  - { offsetInCU: 0x11D54, offset: 0x11D54, size: 0x8, addend: 0x0, symName: __ZNSt3__117__compressed_pairINS_16__hash_node_baseIPNS_11__hash_nodeIxPvEEEENS_9allocatorIS4_EEE5firstB7v160006Ev, symObjAddr: 0x1120, symBinAddr: 0x100001B88, symSize: 0x24 }
  - { offsetInCU: 0x11D7A, offset: 0x11D7A, size: 0x8, addend: 0x0, symName: __ZNSt3__110unique_ptrIA_PNS_16__hash_node_baseIPNS_11__hash_nodeIxPvEEEENS_25__bucket_list_deallocatorINS_9allocatorIS7_EEEEED1B7v160006Ev, symObjAddr: 0x1154, symBinAddr: 0x100001BBC, symSize: 0x2C }
  - { offsetInCU: 0x11DA4, offset: 0x11DA4, size: 0x8, addend: 0x0, symName: __ZNSt3__112__hash_tableIxNS_4hashIxEENS_8equal_toIxEENS_9allocatorIxEEE12__node_allocB7v160006Ev, symObjAddr: 0x1180, symBinAddr: 0x100001BE8, symSize: 0x28 }
  - { offsetInCU: 0x11DCA, offset: 0x11DCA, size: 0x8, addend: 0x0, symName: __ZNSt3__116__hash_node_baseIPNS_11__hash_nodeIxPvEEE8__upcastB7v160006Ev, symObjAddr: 0x11A8, symBinAddr: 0x100001C10, symSize: 0x24 }
  - { offsetInCU: 0x11DF0, offset: 0x11DF0, size: 0x8, addend: 0x0, symName: __ZNSt3__116allocator_traitsINS_9allocatorINS_11__hash_nodeIxPvEEEEE7destroyB7v160006IxvvEEvRS5_PT_, symObjAddr: 0x11CC, symBinAddr: 0x100001C34, symSize: 0x14 }
  - { offsetInCU: 0x11E2B, offset: 0x11E2B, size: 0x8, addend: 0x0, symName: __ZNSt3__122__hash_key_value_typesIxE9__get_ptrB7v160006ERx, symObjAddr: 0x11E0, symBinAddr: 0x100001C48, symSize: 0x14 }
  - { offsetInCU: 0x11E4E, offset: 0x11E4E, size: 0x8, addend: 0x0, symName: __ZNSt3__116allocator_traitsINS_9allocatorINS_11__hash_nodeIxPvEEEEE10deallocateB7v160006ERS5_PS4_m, symObjAddr: 0x11F4, symBinAddr: 0x100001C5C, symSize: 0x34 }
  - { offsetInCU: 0x11E90, offset: 0x11E90, size: 0x8, addend: 0x0, symName: __ZNSt3__117__compressed_pairINS_16__hash_node_baseIPNS_11__hash_nodeIxPvEEEENS_9allocatorIS4_EEE6secondB7v160006Ev, symObjAddr: 0x1228, symBinAddr: 0x100001C90, symSize: 0x24 }
  - { offsetInCU: 0x11EB6, offset: 0x11EB6, size: 0x8, addend: 0x0, symName: __ZNSt3__122__compressed_pair_elemINS_9allocatorINS_11__hash_nodeIxPvEEEELi1ELb1EE5__getB7v160006Ev, symObjAddr: 0x124C, symBinAddr: 0x100001CB4, symSize: 0x14 }
  - { offsetInCU: 0x11EDC, offset: 0x11EDC, size: 0x8, addend: 0x0, symName: __ZNSt3__114pointer_traitsIPNS_16__hash_node_baseIPNS_11__hash_nodeIxPvEEEEE10pointer_toB7v160006ERS6_, symObjAddr: 0x1260, symBinAddr: 0x100001CC8, symSize: 0x14 }
  - { offsetInCU: 0x11EFF, offset: 0x11EFF, size: 0x8, addend: 0x0, symName: __ZNSt3__19allocatorINS_11__hash_nodeIxPvEEE10deallocateB7v160006EPS3_m, symObjAddr: 0x1274, symBinAddr: 0x100001CDC, symSize: 0x44 }
  - { offsetInCU: 0x11F41, offset: 0x11F41, size: 0x8, addend: 0x0, symName: __ZNSt3__122__compressed_pair_elemINS_16__hash_node_baseIPNS_11__hash_nodeIxPvEEEELi0ELb0EE5__getB7v160006Ev, symObjAddr: 0x1334, symBinAddr: 0x100001D9C, symSize: 0x14 }
  - { offsetInCU: 0x11F67, offset: 0x11F67, size: 0x8, addend: 0x0, symName: __ZNSt3__110unique_ptrIA_PNS_16__hash_node_baseIPNS_11__hash_nodeIxPvEEEENS_25__bucket_list_deallocatorINS_9allocatorIS7_EEEEED2B7v160006Ev, symObjAddr: 0x1348, symBinAddr: 0x100001DB0, symSize: 0x30 }
  - { offsetInCU: 0x11F91, offset: 0x11F91, size: 0x8, addend: 0x0, symName: __ZNSt3__110unique_ptrIA_PNS_16__hash_node_baseIPNS_11__hash_nodeIxPvEEEENS_25__bucket_list_deallocatorINS_9allocatorIS7_EEEEE5resetB7v160006EDn, symObjAddr: 0x1378, symBinAddr: 0x100001DE0, symSize: 0x6C }
  - { offsetInCU: 0x11FD2, offset: 0x11FD2, size: 0x8, addend: 0x0, symName: __ZNSt3__117__compressed_pairIPPNS_16__hash_node_baseIPNS_11__hash_nodeIxPvEEEENS_25__bucket_list_deallocatorINS_9allocatorIS7_EEEEE5firstB7v160006Ev, symObjAddr: 0x13E4, symBinAddr: 0x100001E4C, symSize: 0x24 }
  - { offsetInCU: 0x11FF8, offset: 0x11FF8, size: 0x8, addend: 0x0, symName: __ZNSt3__117__compressed_pairIPPNS_16__hash_node_baseIPNS_11__hash_nodeIxPvEEEENS_25__bucket_list_deallocatorINS_9allocatorIS7_EEEEE6secondB7v160006Ev, symObjAddr: 0x1408, symBinAddr: 0x100001E70, symSize: 0x28 }
  - { offsetInCU: 0x1201E, offset: 0x1201E, size: 0x8, addend: 0x0, symName: __ZNSt3__125__bucket_list_deallocatorINS_9allocatorIPNS_16__hash_node_baseIPNS_11__hash_nodeIxPvEEEEEEEclB7v160006EPS8_, symObjAddr: 0x1430, symBinAddr: 0x100001E98, symSize: 0x58 }
  - { offsetInCU: 0x12053, offset: 0x12053, size: 0x8, addend: 0x0, symName: __ZNSt3__122__compressed_pair_elemIPPNS_16__hash_node_baseIPNS_11__hash_nodeIxPvEEEELi0ELb0EE5__getB7v160006Ev, symObjAddr: 0x1488, symBinAddr: 0x100001EF0, symSize: 0x14 }
  - { offsetInCU: 0x12079, offset: 0x12079, size: 0x8, addend: 0x0, symName: __ZNSt3__122__compressed_pair_elemINS_25__bucket_list_deallocatorINS_9allocatorIPNS_16__hash_node_baseIPNS_11__hash_nodeIxPvEEEEEEEELi1ELb0EE5__getB7v160006Ev, symObjAddr: 0x149C, symBinAddr: 0x100001F04, symSize: 0x14 }
  - { offsetInCU: 0x1209F, offset: 0x1209F, size: 0x8, addend: 0x0, symName: __ZNSt3__116allocator_traitsINS_9allocatorIPNS_16__hash_node_baseIPNS_11__hash_nodeIxPvEEEEEEE10deallocateB7v160006ERS9_PS8_m, symObjAddr: 0x14B0, symBinAddr: 0x100001F18, symSize: 0x34 }
  - { offsetInCU: 0x120E1, offset: 0x120E1, size: 0x8, addend: 0x0, symName: __ZNSt3__125__bucket_list_deallocatorINS_9allocatorIPNS_16__hash_node_baseIPNS_11__hash_nodeIxPvEEEEEEE7__allocB7v160006Ev, symObjAddr: 0x14E4, symBinAddr: 0x100001F4C, symSize: 0x24 }
  - { offsetInCU: 0x12107, offset: 0x12107, size: 0x8, addend: 0x0, symName: __ZNSt3__125__bucket_list_deallocatorINS_9allocatorIPNS_16__hash_node_baseIPNS_11__hash_nodeIxPvEEEEEEE4sizeB7v160006Ev, symObjAddr: 0x1508, symBinAddr: 0x100001F70, symSize: 0x24 }
  - { offsetInCU: 0x1212D, offset: 0x1212D, size: 0x8, addend: 0x0, symName: __ZNSt3__19allocatorIPNS_16__hash_node_baseIPNS_11__hash_nodeIxPvEEEEE10deallocateB7v160006EPS7_m, symObjAddr: 0x152C, symBinAddr: 0x100001F94, symSize: 0x40 }
  - { offsetInCU: 0x1216F, offset: 0x1216F, size: 0x8, addend: 0x0, symName: __ZNSt3__117__compressed_pairImNS_9allocatorIPNS_16__hash_node_baseIPNS_11__hash_nodeIxPvEEEEEEE6secondB7v160006Ev, symObjAddr: 0x156C, symBinAddr: 0x100001FD4, symSize: 0x24 }
  - { offsetInCU: 0x12195, offset: 0x12195, size: 0x8, addend: 0x0, symName: __ZNSt3__122__compressed_pair_elemINS_9allocatorIPNS_16__hash_node_baseIPNS_11__hash_nodeIxPvEEEEEELi1ELb1EE5__getB7v160006Ev, symObjAddr: 0x1590, symBinAddr: 0x100001FF8, symSize: 0x14 }
  - { offsetInCU: 0x121BB, offset: 0x121BB, size: 0x8, addend: 0x0, symName: __ZNSt3__117__compressed_pairImNS_9allocatorIPNS_16__hash_node_baseIPNS_11__hash_nodeIxPvEEEEEEE5firstB7v160006Ev, symObjAddr: 0x15A4, symBinAddr: 0x10000200C, symSize: 0x24 }
  - { offsetInCU: 0x121E1, offset: 0x121E1, size: 0x8, addend: 0x0, symName: __ZNSt3__122__compressed_pair_elemImLi0ELb0EE5__getB7v160006Ev, symObjAddr: 0x15C8, symBinAddr: 0x100002030, symSize: 0x14 }
  - { offsetInCU: 0x12207, offset: 0x12207, size: 0x8, addend: 0x0, symName: __ZNSt3__19allocatorINS_13unordered_setIxNS_4hashIxEENS_8equal_toIxEENS0_IxEEEEE10deallocateB7v160006EPS7_m, symObjAddr: 0x15DC, symBinAddr: 0x100002044, symSize: 0x44 }
  - { offsetInCU: 0x12249, offset: 0x12249, size: 0x8, addend: 0x0, symName: __ZNSt3__117__compressed_pairIPNS_13unordered_setIxNS_4hashIxEENS_8equal_toIxEENS_9allocatorIxEEEENS6_IS8_EEE6secondB7v160006Ev, symObjAddr: 0x1620, symBinAddr: 0x100002088, symSize: 0x24 }
  - { offsetInCU: 0x1226F, offset: 0x1226F, size: 0x8, addend: 0x0, symName: __ZNSt3__122__compressed_pair_elemINS_9allocatorINS_13unordered_setIxNS_4hashIxEENS_8equal_toIxEENS1_IxEEEEEELi1ELb1EE5__getB7v160006Ev, symObjAddr: 0x1644, symBinAddr: 0x1000020AC, symSize: 0x14 }
  - { offsetInCU: 0x12295, offset: 0x12295, size: 0x8, addend: 0x0, symName: __ZNKSt3__16vectorINS_13unordered_setIxNS_4hashIxEENS_8equal_toIxEENS_9allocatorIxEEEENS6_IS8_EEE9__end_capB7v160006Ev, symObjAddr: 0x1658, symBinAddr: 0x1000020C0, symSize: 0x28 }
  - { offsetInCU: 0x122BB, offset: 0x122BB, size: 0x8, addend: 0x0, symName: __ZNKSt3__117__compressed_pairIPNS_13unordered_setIxNS_4hashIxEENS_8equal_toIxEENS_9allocatorIxEEEENS6_IS8_EEE5firstB7v160006Ev, symObjAddr: 0x1680, symBinAddr: 0x1000020E8, symSize: 0x24 }
  - { offsetInCU: 0x122E1, offset: 0x122E1, size: 0x8, addend: 0x0, symName: __ZNKSt3__122__compressed_pair_elemIPNS_13unordered_setIxNS_4hashIxEENS_8equal_toIxEENS_9allocatorIxEEEELi0ELb0EE5__getB7v160006Ev, symObjAddr: 0x16A4, symBinAddr: 0x10000210C, symSize: 0x14 }
  - { offsetInCU: 0x12307, offset: 0x12307, size: 0x8, addend: 0x0, symName: __ZNSt3__112__hash_tableIxNS_4hashIxEENS_8equal_toIxEENS_9allocatorIxEEE15__insert_uniqueB7v160006ERKx, symObjAddr: 0x16B8, symBinAddr: 0x100002120, symSize: 0x50 }
  - { offsetInCU: 0x1233C, offset: 0x1233C, size: 0x8, addend: 0x0, symName: __ZNSt3__14pairINS_21__hash_const_iteratorIPNS_11__hash_nodeIxPvEEEEbEC1B7v160006INS_15__hash_iteratorIS5_EEbLS3_0EEEONS0_IT_T0_EE, symObjAddr: 0x1708, symBinAddr: 0x100002170, symSize: 0x34 }
  - { offsetInCU: 0x1238D, offset: 0x1238D, size: 0x8, addend: 0x0, symName: __ZNSt3__112__hash_tableIxNS_4hashIxEENS_8equal_toIxEENS_9allocatorIxEEE25__emplace_unique_key_argsIxJRKxEEENS_4pairINS_15__hash_iteratorIPNS_11__hash_nodeIxPvEEEEbEERKT_DpOT0_, symObjAddr: 0x173C, symBinAddr: 0x1000021A4, symSize: 0x4C4 }
  - { offsetInCU: 0x1246D, offset: 0x1246D, size: 0x8, addend: 0x0, symName: __ZNSt3__122__hash_key_value_typesIxE9__get_keyB7v160006ERKx, symObjAddr: 0x1C00, symBinAddr: 0x100002668, symSize: 0x14 }
  - { offsetInCU: 0x12490, offset: 0x12490, size: 0x8, addend: 0x0, symName: __ZNSt3__112__hash_tableIxNS_4hashIxEENS_8equal_toIxEENS_9allocatorIxEEE13hash_functionB7v160006Ev, symObjAddr: 0x1C14, symBinAddr: 0x10000267C, symSize: 0x28 }
  - { offsetInCU: 0x124B6, offset: 0x124B6, size: 0x8, addend: 0x0, symName: __ZNKSt3__113__scalar_hashIxLm1EEclB7v160006Ex, symObjAddr: 0x1C3C, symBinAddr: 0x1000026A4, symSize: 0x20 }
  - { offsetInCU: 0x1251C, offset: 0x1251C, size: 0x8, addend: 0x0, symName: __ZNKSt3__112__hash_tableIxNS_4hashIxEENS_8equal_toIxEENS_9allocatorIxEEE12bucket_countB7v160006Ev, symObjAddr: 0x1C5C, symBinAddr: 0x1000026C4, symSize: 0x28 }
  - { offsetInCU: 0x12542, offset: 0x12542, size: 0x8, addend: 0x0, symName: __ZNKSt3__110unique_ptrIA_PNS_16__hash_node_baseIPNS_11__hash_nodeIxPvEEEENS_25__bucket_list_deallocatorINS_9allocatorIS7_EEEEEixB7v160006Em, symObjAddr: 0x1D1C, symBinAddr: 0x100002784, symSize: 0x34 }
  - { offsetInCU: 0x12577, offset: 0x12577, size: 0x8, addend: 0x0, symName: __ZNKSt3__116__hash_node_baseIPNS_11__hash_nodeIxPvEEE6__hashB7v160006Ev, symObjAddr: 0x1D50, symBinAddr: 0x1000027B8, symSize: 0x18 }
  - { offsetInCU: 0x1259D, offset: 0x1259D, size: 0x8, addend: 0x0, symName: __ZNSt3__112__hash_tableIxNS_4hashIxEENS_8equal_toIxEENS_9allocatorIxEEE6key_eqB7v160006Ev, symObjAddr: 0x1D68, symBinAddr: 0x1000027D0, symSize: 0x28 }
  - { offsetInCU: 0x125C3, offset: 0x125C3, size: 0x8, addend: 0x0, symName: __ZNKSt3__18equal_toIxEclB7v160006ERKxS3_, symObjAddr: 0x1D90, symBinAddr: 0x1000027F8, symSize: 0x34 }
  - { offsetInCU: 0x12607, offset: 0x12607, size: 0x8, addend: 0x0, symName: __ZNSt3__112__hash_tableIxNS_4hashIxEENS_8equal_toIxEENS_9allocatorIxEEE21__construct_node_hashIRKxJEEENS_10unique_ptrINS_11__hash_nodeIxPvEENS_22__hash_node_destructorINS5_ISE_EEEEEEmOT_DpOT0_, symObjAddr: 0x1DC4, symBinAddr: 0x10000282C, symSize: 0x138 }
  - { offsetInCU: 0x1267A, offset: 0x1267A, size: 0x8, addend: 0x0, symName: __ZNSt3__112__hash_tableIxNS_4hashIxEENS_8equal_toIxEENS_9allocatorIxEEE4sizeB7v160006Ev, symObjAddr: 0x1EFC, symBinAddr: 0x100002964, symSize: 0x28 }
  - { offsetInCU: 0x126A0, offset: 0x126A0, size: 0x8, addend: 0x0, symName: __ZNSt3__112__hash_tableIxNS_4hashIxEENS_8equal_toIxEENS_9allocatorIxEEE15max_load_factorB7v160006Ev, symObjAddr: 0x1F24, symBinAddr: 0x10000298C, symSize: 0x28 }
  - { offsetInCU: 0x126C6, offset: 0x126C6, size: 0x8, addend: 0x0, symName: __ZNSt3__112__hash_tableIxNS_4hashIxEENS_8equal_toIxEENS_9allocatorIxEEE15__rehash_uniqueB7v160006Em, symObjAddr: 0x1F4C, symBinAddr: 0x1000029B4, symSize: 0x2C }
  - { offsetInCU: 0x126FA, offset: 0x126FA, size: 0x8, addend: 0x0, symName: __Z4ceilB7v160006f, symObjAddr: 0x1FF4, symBinAddr: 0x100002A5C, symSize: 0x18 }
  - { offsetInCU: 0x12729, offset: 0x12729, size: 0x8, addend: 0x0, symName: __ZNSt3__116__hash_node_baseIPNS_11__hash_nodeIxPvEEE5__ptrB7v160006Ev, symObjAddr: 0x200C, symBinAddr: 0x100002A74, symSize: 0x24 }
  - { offsetInCU: 0x1274F, offset: 0x1274F, size: 0x8, addend: 0x0, symName: __ZNKSt3__110unique_ptrINS_11__hash_nodeIxPvEENS_22__hash_node_destructorINS_9allocatorIS3_EEEEEptB7v160006Ev, symObjAddr: 0x2030, symBinAddr: 0x100002A98, symSize: 0x28 }
  - { offsetInCU: 0x12775, offset: 0x12775, size: 0x8, addend: 0x0, symName: __ZNKSt3__110unique_ptrINS_11__hash_nodeIxPvEENS_22__hash_node_destructorINS_9allocatorIS3_EEEEE3getB7v160006Ev, symObjAddr: 0x2058, symBinAddr: 0x100002AC0, symSize: 0x28 }
  - { offsetInCU: 0x1279B, offset: 0x1279B, size: 0x8, addend: 0x0, symName: __ZNSt3__110unique_ptrINS_11__hash_nodeIxPvEENS_22__hash_node_destructorINS_9allocatorIS3_EEEEE7releaseB7v160006Ev, symObjAddr: 0x2080, symBinAddr: 0x100002AE8, symSize: 0x44 }
  - { offsetInCU: 0x127D0, offset: 0x127D0, size: 0x8, addend: 0x0, symName: __ZNSt3__110unique_ptrINS_11__hash_nodeIxPvEENS_22__hash_node_destructorINS_9allocatorIS3_EEEEED1B7v160006Ev, symObjAddr: 0x20C4, symBinAddr: 0x100002B2C, symSize: 0x2C }
  - { offsetInCU: 0x127FA, offset: 0x127FA, size: 0x8, addend: 0x0, symName: __ZNSt3__115__hash_iteratorIPNS_11__hash_nodeIxPvEEEC1B7v160006EPNS_16__hash_node_baseIS4_EEPKv, symObjAddr: 0x20F0, symBinAddr: 0x100002B58, symSize: 0x3C }
  - { offsetInCU: 0x1284C, offset: 0x1284C, size: 0x8, addend: 0x0, symName: __ZNSt3__14pairINS_15__hash_iteratorIPNS_11__hash_nodeIxPvEEEEbEC1B7v160006IS6_RbLS3_0EEEOT_OT0_, symObjAddr: 0x212C, symBinAddr: 0x100002B94, symSize: 0x3C }
  - { offsetInCU: 0x128AA, offset: 0x128AA, size: 0x8, addend: 0x0, symName: __ZNSt3__117__compressed_pairImNS_4hashIxEEE6secondB7v160006Ev, symObjAddr: 0x2168, symBinAddr: 0x100002BD0, symSize: 0x24 }
  - { offsetInCU: 0x128D0, offset: 0x128D0, size: 0x8, addend: 0x0, symName: __ZNSt3__122__compressed_pair_elemINS_4hashIxEELi1ELb1EE5__getB7v160006Ev, symObjAddr: 0x218C, symBinAddr: 0x100002BF4, symSize: 0x14 }
  - { offsetInCU: 0x128F6, offset: 0x128F6, size: 0x8, addend: 0x0, symName: __ZNKSt3__110unique_ptrIA_PNS_16__hash_node_baseIPNS_11__hash_nodeIxPvEEEENS_25__bucket_list_deallocatorINS_9allocatorIS7_EEEEE11get_deleterB7v160006Ev, symObjAddr: 0x21A0, symBinAddr: 0x100002C08, symSize: 0x24 }
  - { offsetInCU: 0x1291C, offset: 0x1291C, size: 0x8, addend: 0x0, symName: __ZNKSt3__125__bucket_list_deallocatorINS_9allocatorIPNS_16__hash_node_baseIPNS_11__hash_nodeIxPvEEEEEEE4sizeB7v160006Ev, symObjAddr: 0x21C4, symBinAddr: 0x100002C2C, symSize: 0x28 }
  - { offsetInCU: 0x12942, offset: 0x12942, size: 0x8, addend: 0x0, symName: __ZNKSt3__117__compressed_pairIPPNS_16__hash_node_baseIPNS_11__hash_nodeIxPvEEEENS_25__bucket_list_deallocatorINS_9allocatorIS7_EEEEE6secondB7v160006Ev, symObjAddr: 0x21EC, symBinAddr: 0x100002C54, symSize: 0x28 }
  - { offsetInCU: 0x12968, offset: 0x12968, size: 0x8, addend: 0x0, symName: __ZNKSt3__122__compressed_pair_elemINS_25__bucket_list_deallocatorINS_9allocatorIPNS_16__hash_node_baseIPNS_11__hash_nodeIxPvEEEEEEEELi1ELb0EE5__getB7v160006Ev, symObjAddr: 0x2214, symBinAddr: 0x100002C7C, symSize: 0x14 }
  - { offsetInCU: 0x1298E, offset: 0x1298E, size: 0x8, addend: 0x0, symName: __ZNKSt3__117__compressed_pairImNS_9allocatorIPNS_16__hash_node_baseIPNS_11__hash_nodeIxPvEEEEEEE5firstB7v160006Ev, symObjAddr: 0x2228, symBinAddr: 0x100002C90, symSize: 0x24 }
  - { offsetInCU: 0x129B4, offset: 0x129B4, size: 0x8, addend: 0x0, symName: __ZNKSt3__122__compressed_pair_elemImLi0ELb0EE5__getB7v160006Ev, symObjAddr: 0x224C, symBinAddr: 0x100002CB4, symSize: 0x14 }
  - { offsetInCU: 0x129DA, offset: 0x129DA, size: 0x8, addend: 0x0, symName: __ZNKSt3__117__compressed_pairIPPNS_16__hash_node_baseIPNS_11__hash_nodeIxPvEEEENS_25__bucket_list_deallocatorINS_9allocatorIS7_EEEEE5firstB7v160006Ev, symObjAddr: 0x2260, symBinAddr: 0x100002CC8, symSize: 0x24 }
  - { offsetInCU: 0x12A00, offset: 0x12A00, size: 0x8, addend: 0x0, symName: __ZNKSt3__122__compressed_pair_elemIPPNS_16__hash_node_baseIPNS_11__hash_nodeIxPvEEEELi0ELb0EE5__getB7v160006Ev, symObjAddr: 0x2284, symBinAddr: 0x100002CEC, symSize: 0x14 }
  - { offsetInCU: 0x12A26, offset: 0x12A26, size: 0x8, addend: 0x0, symName: __ZNSt3__117__compressed_pairIfNS_8equal_toIxEEE6secondB7v160006Ev, symObjAddr: 0x2298, symBinAddr: 0x100002D00, symSize: 0x24 }
  - { offsetInCU: 0x12A4C, offset: 0x12A4C, size: 0x8, addend: 0x0, symName: __ZNSt3__122__compressed_pair_elemINS_8equal_toIxEELi1ELb1EE5__getB7v160006Ev, symObjAddr: 0x22BC, symBinAddr: 0x100002D24, symSize: 0x14 }
  - { offsetInCU: 0x12A72, offset: 0x12A72, size: 0x8, addend: 0x0, symName: __ZNSt3__116allocator_traitsINS_9allocatorINS_11__hash_nodeIxPvEEEEE8allocateB7v160006ERS5_m, symObjAddr: 0x22D0, symBinAddr: 0x100002D38, symSize: 0x2C }
  - { offsetInCU: 0x12AA5, offset: 0x12AA5, size: 0x8, addend: 0x0, symName: __ZNSt3__122__hash_node_destructorINS_9allocatorINS_11__hash_nodeIxPvEEEEEC1B7v160006ERS5_b, symObjAddr: 0x22FC, symBinAddr: 0x100002D64, symSize: 0x48 }
  - { offsetInCU: 0x12AF2, offset: 0x12AF2, size: 0x8, addend: 0x0, symName: __ZNSt3__110unique_ptrINS_11__hash_nodeIxPvEENS_22__hash_node_destructorINS_9allocatorIS3_EEEEEC1B7v160006ILb1EvEEPS3_NS_16__dependent_typeINS_27__unique_ptr_deleter_sfinaeIS7_EEXT_EE20__good_rval_ref_typeE, symObjAddr: 0x2344, symBinAddr: 0x100002DAC, symSize: 0x3C }
  - { offsetInCU: 0x12B43, offset: 0x12B43, size: 0x8, addend: 0x0, symName: __ZNSt3__116allocator_traitsINS_9allocatorINS_11__hash_nodeIxPvEEEEE9constructB7v160006IxJRKxEvEEvRS5_PT_DpOT0_, symObjAddr: 0x2380, symBinAddr: 0x100002DE8, symSize: 0x34 }
  - { offsetInCU: 0x12B9A, offset: 0x12B9A, size: 0x8, addend: 0x0, symName: __ZNSt3__110unique_ptrINS_11__hash_nodeIxPvEENS_22__hash_node_destructorINS_9allocatorIS3_EEEEE11get_deleterB7v160006Ev, symObjAddr: 0x23B4, symBinAddr: 0x100002E1C, symSize: 0x24 }
  - { offsetInCU: 0x12BC0, offset: 0x12BC0, size: 0x8, addend: 0x0, symName: __ZNSt3__19allocatorINS_11__hash_nodeIxPvEEE8allocateB7v160006Em, symObjAddr: 0x23D8, symBinAddr: 0x100002E40, symSize: 0x5C }
  - { offsetInCU: 0x12BFE, offset: 0x12BFE, size: 0x8, addend: 0x0, symName: __ZNSt3__116allocator_traitsINS_9allocatorINS_11__hash_nodeIxPvEEEEE8max_sizeB7v160006IS5_vEEmRKS5_, symObjAddr: 0x2434, symBinAddr: 0x100002E9C, symSize: 0x24 }
  - { offsetInCU: 0x12C2C, offset: 0x12C2C, size: 0x8, addend: 0x0, symName: __ZNKSt3__19allocatorINS_11__hash_nodeIxPvEEE8max_sizeB7v160006Ev, symObjAddr: 0x24B4, symBinAddr: 0x100002F1C, symSize: 0x18 }
  - { offsetInCU: 0x12C52, offset: 0x12C52, size: 0x8, addend: 0x0, symName: __ZNSt3__122__hash_node_destructorINS_9allocatorINS_11__hash_nodeIxPvEEEEEC2B7v160006ERS5_b, symObjAddr: 0x24F0, symBinAddr: 0x100002F58, symSize: 0x38 }
  - { offsetInCU: 0x12C9A, offset: 0x12C9A, size: 0x8, addend: 0x0, symName: __ZNSt3__110unique_ptrINS_11__hash_nodeIxPvEENS_22__hash_node_destructorINS_9allocatorIS3_EEEEEC2B7v160006ILb1EvEEPS3_NS_16__dependent_typeINS_27__unique_ptr_deleter_sfinaeIS7_EEXT_EE20__good_rval_ref_typeE, symObjAddr: 0x2528, symBinAddr: 0x100002F90, symSize: 0x48 }
  - { offsetInCU: 0x12CEB, offset: 0x12CEB, size: 0x8, addend: 0x0, symName: __ZNSt3__117__compressed_pairIPNS_11__hash_nodeIxPvEENS_22__hash_node_destructorINS_9allocatorIS3_EEEEEC1B7v160006IRS4_S8_EEOT_OT0_, symObjAddr: 0x2570, symBinAddr: 0x100002FD8, symSize: 0x3C }
  - { offsetInCU: 0x12D43, offset: 0x12D43, size: 0x8, addend: 0x0, symName: __ZNSt3__117__compressed_pairIPNS_11__hash_nodeIxPvEENS_22__hash_node_destructorINS_9allocatorIS3_EEEEEC2B7v160006IRS4_S8_EEOT_OT0_, symObjAddr: 0x25AC, symBinAddr: 0x100003014, symSize: 0x48 }
  - { offsetInCU: 0x12D9B, offset: 0x12D9B, size: 0x8, addend: 0x0, symName: __ZNSt3__122__compressed_pair_elemIPNS_11__hash_nodeIxPvEELi0ELb0EEC2B7v160006IRS4_vEEOT_, symObjAddr: 0x25F4, symBinAddr: 0x10000305C, symSize: 0x24 }
  - { offsetInCU: 0x12DDD, offset: 0x12DDD, size: 0x8, addend: 0x0, symName: __ZNSt3__122__compressed_pair_elemINS_22__hash_node_destructorINS_9allocatorINS_11__hash_nodeIxPvEEEEEELi1ELb0EEC2B7v160006IS7_vEEOT_, symObjAddr: 0x2618, symBinAddr: 0x100003080, symSize: 0x24 }
  - { offsetInCU: 0x12E1F, offset: 0x12E1F, size: 0x8, addend: 0x0, symName: __ZNSt3__19allocatorINS_11__hash_nodeIxPvEEE9constructB7v160006IxJRKxEEEvPT_DpOT0_, symObjAddr: 0x263C, symBinAddr: 0x1000030A4, symSize: 0x28 }
  - { offsetInCU: 0x12E75, offset: 0x12E75, size: 0x8, addend: 0x0, symName: __ZNSt3__117__compressed_pairIPNS_11__hash_nodeIxPvEENS_22__hash_node_destructorINS_9allocatorIS3_EEEEE6secondB7v160006Ev, symObjAddr: 0x2664, symBinAddr: 0x1000030CC, symSize: 0x28 }
  - { offsetInCU: 0x12E9B, offset: 0x12E9B, size: 0x8, addend: 0x0, symName: __ZNSt3__122__compressed_pair_elemINS_22__hash_node_destructorINS_9allocatorINS_11__hash_nodeIxPvEEEEEELi1ELb0EE5__getB7v160006Ev, symObjAddr: 0x268C, symBinAddr: 0x1000030F4, symSize: 0x14 }
  - { offsetInCU: 0x12EC1, offset: 0x12EC1, size: 0x8, addend: 0x0, symName: __ZNSt3__117__compressed_pairImNS_4hashIxEEE5firstB7v160006Ev, symObjAddr: 0x26A0, symBinAddr: 0x100003108, symSize: 0x24 }
  - { offsetInCU: 0x12EE7, offset: 0x12EE7, size: 0x8, addend: 0x0, symName: __ZNSt3__117__compressed_pairIfNS_8equal_toIxEEE5firstB7v160006Ev, symObjAddr: 0x26C4, symBinAddr: 0x10000312C, symSize: 0x24 }
  - { offsetInCU: 0x12F0D, offset: 0x12F0D, size: 0x8, addend: 0x0, symName: __ZNSt3__122__compressed_pair_elemIfLi0ELb0EE5__getB7v160006Ev, symObjAddr: 0x26E8, symBinAddr: 0x100003150, symSize: 0x14 }
  - { offsetInCU: 0x12F33, offset: 0x12F33, size: 0x8, addend: 0x0, symName: __ZNSt3__112__hash_tableIxNS_4hashIxEENS_8equal_toIxEENS_9allocatorIxEEE8__rehashILb1EEEvm, symObjAddr: 0x26FC, symBinAddr: 0x100003164, symSize: 0x1A8 }
  - { offsetInCU: 0x12F83, offset: 0x12F83, size: 0x8, addend: 0x0, symName: __ZNSt3__112__hash_tableIxNS_4hashIxEENS_8equal_toIxEENS_9allocatorIxEEE11__do_rehashILb1EEEvm, symObjAddr: 0x28A4, symBinAddr: 0x10000330C, symSize: 0x290 }
  - { offsetInCU: 0x13066, offset: 0x13066, size: 0x8, addend: 0x0, symName: __ZNSt3__110unique_ptrIA_PNS_16__hash_node_baseIPNS_11__hash_nodeIxPvEEEENS_25__bucket_list_deallocatorINS_9allocatorIS7_EEEEE11get_deleterB7v160006Ev, symObjAddr: 0x2BB0, symBinAddr: 0x100003618, symSize: 0x24 }
  - { offsetInCU: 0x1308C, offset: 0x1308C, size: 0x8, addend: 0x0, symName: __ZNSt3__110unique_ptrIA_PNS_16__hash_node_baseIPNS_11__hash_nodeIxPvEEEENS_25__bucket_list_deallocatorINS_9allocatorIS7_EEEEE5resetB7v160006IPS7_EENS_9enable_ifIXsr28_CheckArrayPointerConversionIT_EE5valueEvE4typeESH_, symObjAddr: 0x2BD4, symBinAddr: 0x10000363C, symSize: 0x78 }
  - { offsetInCU: 0x130D9, offset: 0x130D9, size: 0x8, addend: 0x0, symName: __ZNSt3__116allocator_traitsINS_9allocatorIPNS_16__hash_node_baseIPNS_11__hash_nodeIxPvEEEEEEE8allocateB7v160006ERS9_m, symObjAddr: 0x2C4C, symBinAddr: 0x1000036B4, symSize: 0x2C }
  - { offsetInCU: 0x1310C, offset: 0x1310C, size: 0x8, addend: 0x0, symName: __ZNSt3__19allocatorIPNS_16__hash_node_baseIPNS_11__hash_nodeIxPvEEEEE8allocateB7v160006Em, symObjAddr: 0x2C78, symBinAddr: 0x1000036E0, symSize: 0x58 }
  - { offsetInCU: 0x1314A, offset: 0x1314A, size: 0x8, addend: 0x0, symName: __ZNSt3__116allocator_traitsINS_9allocatorIPNS_16__hash_node_baseIPNS_11__hash_nodeIxPvEEEEEEE8max_sizeB7v160006IS9_vEEmRKS9_, symObjAddr: 0x2CD0, symBinAddr: 0x100003738, symSize: 0x24 }
  - { offsetInCU: 0x13178, offset: 0x13178, size: 0x8, addend: 0x0, symName: __ZNKSt3__19allocatorIPNS_16__hash_node_baseIPNS_11__hash_nodeIxPvEEEEE8max_sizeB7v160006Ev, symObjAddr: 0x2CF4, symBinAddr: 0x10000375C, symSize: 0x14 }
  - { offsetInCU: 0x131A8, offset: 0x131A8, size: 0x8, addend: 0x0, symName: __ZNKSt3__16__lessImmEclB7v160006ERKmS3_, symObjAddr: 0x2D78, symBinAddr: 0x1000037E0, symSize: 0x34 }
  - { offsetInCU: 0x131EA, offset: 0x131EA, size: 0x8, addend: 0x0, symName: __ZNKSt3__117__compressed_pairIPNS_11__hash_nodeIxPvEENS_22__hash_node_destructorINS_9allocatorIS3_EEEEE5firstB7v160006Ev, symObjAddr: 0x2DAC, symBinAddr: 0x100003814, symSize: 0x24 }
  - { offsetInCU: 0x13210, offset: 0x13210, size: 0x8, addend: 0x0, symName: __ZNKSt3__122__compressed_pair_elemIPNS_11__hash_nodeIxPvEELi0ELb0EE5__getB7v160006Ev, symObjAddr: 0x2DD0, symBinAddr: 0x100003838, symSize: 0x14 }
  - { offsetInCU: 0x13236, offset: 0x13236, size: 0x8, addend: 0x0, symName: __ZNSt3__117__compressed_pairIPNS_11__hash_nodeIxPvEENS_22__hash_node_destructorINS_9allocatorIS3_EEEEE5firstB7v160006Ev, symObjAddr: 0x2DE4, symBinAddr: 0x10000384C, symSize: 0x24 }
  - { offsetInCU: 0x1325C, offset: 0x1325C, size: 0x8, addend: 0x0, symName: __ZNSt3__122__compressed_pair_elemIPNS_11__hash_nodeIxPvEELi0ELb0EE5__getB7v160006Ev, symObjAddr: 0x2E08, symBinAddr: 0x100003870, symSize: 0x14 }
  - { offsetInCU: 0x13282, offset: 0x13282, size: 0x8, addend: 0x0, symName: __ZNSt3__110unique_ptrINS_11__hash_nodeIxPvEENS_22__hash_node_destructorINS_9allocatorIS3_EEEEED2B7v160006Ev, symObjAddr: 0x2E1C, symBinAddr: 0x100003884, symSize: 0x30 }
  - { offsetInCU: 0x132AC, offset: 0x132AC, size: 0x8, addend: 0x0, symName: __ZNSt3__110unique_ptrINS_11__hash_nodeIxPvEENS_22__hash_node_destructorINS_9allocatorIS3_EEEEE5resetB7v160006EPS3_, symObjAddr: 0x2E4C, symBinAddr: 0x1000038B4, symSize: 0x78 }
  - { offsetInCU: 0x132F0, offset: 0x132F0, size: 0x8, addend: 0x0, symName: __ZNSt3__122__hash_node_destructorINS_9allocatorINS_11__hash_nodeIxPvEEEEEclB7v160006EPS4_, symObjAddr: 0x2EC4, symBinAddr: 0x10000392C, symSize: 0x88 }
  - { offsetInCU: 0x13325, offset: 0x13325, size: 0x8, addend: 0x0, symName: __ZNSt3__115__hash_iteratorIPNS_11__hash_nodeIxPvEEEC2B7v160006EPNS_16__hash_node_baseIS4_EEPKv, symObjAddr: 0x2F4C, symBinAddr: 0x1000039B4, symSize: 0x24 }
  - { offsetInCU: 0x1336D, offset: 0x1336D, size: 0x8, addend: 0x0, symName: __ZNSt3__14pairINS_15__hash_iteratorIPNS_11__hash_nodeIxPvEEEEbEC2B7v160006IS6_RbLS3_0EEEOT_OT0_, symObjAddr: 0x2F70, symBinAddr: 0x1000039D8, symSize: 0x38 }
  - { offsetInCU: 0x133CB, offset: 0x133CB, size: 0x8, addend: 0x0, symName: __ZNSt3__14pairINS_21__hash_const_iteratorIPNS_11__hash_nodeIxPvEEEEbEC2B7v160006INS_15__hash_iteratorIS5_EEbLS3_0EEEONS0_IT_T0_EE, symObjAddr: 0x2FA8, symBinAddr: 0x100003A10, symSize: 0x44 }
  - { offsetInCU: 0x1341C, offset: 0x1341C, size: 0x8, addend: 0x0, symName: __ZNSt3__121__hash_const_iteratorIPNS_11__hash_nodeIxPvEEEC1B7v160006ERKNS_15__hash_iteratorIS4_EE, symObjAddr: 0x2FEC, symBinAddr: 0x100003A54, symSize: 0x34 }
  - { offsetInCU: 0x13455, offset: 0x13455, size: 0x8, addend: 0x0, symName: __ZNSt3__121__hash_const_iteratorIPNS_11__hash_nodeIxPvEEEC2B7v160006ERKNS_15__hash_iteratorIS4_EE, symObjAddr: 0x3020, symBinAddr: 0x100003A88, symSize: 0x24 }
  - { offsetInCU: 0x1348E, offset: 0x1348E, size: 0x8, addend: 0x0, symName: __ZNSt3__16vectorIxNS_9allocatorIxEEEC2Em, symObjAddr: 0x3044, symBinAddr: 0x100003AAC, symSize: 0xE0 }
  - { offsetInCU: 0x134DE, offset: 0x134DE, size: 0x8, addend: 0x0, symName: __ZNSt3__117__compressed_pairIPxNS_9allocatorIxEEEC1B7v160006IDnNS_18__default_init_tagEEEOT_OT0_, symObjAddr: 0x3124, symBinAddr: 0x100003B8C, symSize: 0x3C }
  - { offsetInCU: 0x13536, offset: 0x13536, size: 0x8, addend: 0x0, symName: __ZNSt3__16vectorIxNS_9allocatorIxEEE16__destroy_vectorC1ERS3_, symObjAddr: 0x31A0, symBinAddr: 0x100003C08, symSize: 0x34 }
  - { offsetInCU: 0x1356F, offset: 0x1356F, size: 0x8, addend: 0x0, symName: __ZNSt3__16vectorIxNS_9allocatorIxEEE11__vallocateB7v160006Em, symObjAddr: 0x31E4, symBinAddr: 0x100003C4C, symSize: 0xAC }
  - { offsetInCU: 0x135B3, offset: 0x135B3, size: 0x8, addend: 0x0, symName: __ZNSt3__16vectorIxNS_9allocatorIxEEE18__construct_at_endEm, symObjAddr: 0x3290, symBinAddr: 0x100003CF8, symSize: 0xC8 }
  - { offsetInCU: 0x13625, offset: 0x13625, size: 0x8, addend: 0x0, symName: __ZNSt3__128__exception_guard_exceptionsINS_6vectorIxNS_9allocatorIxEEE16__destroy_vectorEE10__completeB7v160006Ev, symObjAddr: 0x3358, symBinAddr: 0x100003DC0, symSize: 0x1C }
  - { offsetInCU: 0x1364B, offset: 0x1364B, size: 0x8, addend: 0x0, symName: __ZNSt3__128__exception_guard_exceptionsINS_6vectorIxNS_9allocatorIxEEE16__destroy_vectorEED1B7v160006Ev, symObjAddr: 0x3374, symBinAddr: 0x100003DDC, symSize: 0x2C }
  - { offsetInCU: 0x13675, offset: 0x13675, size: 0x8, addend: 0x0, symName: __ZNSt3__117__compressed_pairIPxNS_9allocatorIxEEEC2B7v160006IDnNS_18__default_init_tagEEEOT_OT0_, symObjAddr: 0x33A0, symBinAddr: 0x100003E08, symSize: 0x40 }
  - { offsetInCU: 0x136CD, offset: 0x136CD, size: 0x8, addend: 0x0, symName: __ZNSt3__122__compressed_pair_elemIPxLi0ELb0EEC2B7v160006IDnvEEOT_, symObjAddr: 0x33E0, symBinAddr: 0x100003E48, symSize: 0x1C }
  - { offsetInCU: 0x1370F, offset: 0x1370F, size: 0x8, addend: 0x0, symName: __ZNSt3__122__compressed_pair_elemINS_9allocatorIxEELi1ELb1EEC2B7v160006ENS_18__default_init_tagE, symObjAddr: 0x33FC, symBinAddr: 0x100003E64, symSize: 0x2C }
  - { offsetInCU: 0x13744, offset: 0x13744, size: 0x8, addend: 0x0, symName: __ZNSt3__19allocatorIxEC2B7v160006Ev, symObjAddr: 0x3428, symBinAddr: 0x100003E90, symSize: 0x2C }
  - { offsetInCU: 0x1376E, offset: 0x1376E, size: 0x8, addend: 0x0, symName: __ZNSt3__116__non_trivial_ifILb1ENS_9allocatorIxEEEC2B7v160006Ev, symObjAddr: 0x3454, symBinAddr: 0x100003EBC, symSize: 0x14 }
  - { offsetInCU: 0x13798, offset: 0x13798, size: 0x8, addend: 0x0, symName: __ZNSt3__128__exception_guard_exceptionsINS_6vectorIxNS_9allocatorIxEEE16__destroy_vectorEEC1B7v160006ES5_, symObjAddr: 0x3468, symBinAddr: 0x100003ED0, symSize: 0x34 }
  - { offsetInCU: 0x137D0, offset: 0x137D0, size: 0x8, addend: 0x0, symName: __ZNSt3__128__exception_guard_exceptionsINS_6vectorIxNS_9allocatorIxEEE16__destroy_vectorEEC2B7v160006ES5_, symObjAddr: 0x349C, symBinAddr: 0x100003F04, symSize: 0x24 }
  - { offsetInCU: 0x13808, offset: 0x13808, size: 0x8, addend: 0x0, symName: __ZNSt3__16vectorIxNS_9allocatorIxEEE16__destroy_vectorC2ERS3_, symObjAddr: 0x34C0, symBinAddr: 0x100003F28, symSize: 0x20 }
  - { offsetInCU: 0x13841, offset: 0x13841, size: 0x8, addend: 0x0, symName: __ZNKSt3__16vectorIxNS_9allocatorIxEEE8max_sizeEv, symObjAddr: 0x34E0, symBinAddr: 0x100003F48, symSize: 0x60 }
  - { offsetInCU: 0x13869, offset: 0x13869, size: 0x8, addend: 0x0, symName: __ZNKSt3__16vectorIxNS_9allocatorIxEEE20__throw_length_errorB7v160006Ev, symObjAddr: 0x3540, symBinAddr: 0x100003FA8, symSize: 0x1C }
  - { offsetInCU: 0x1388F, offset: 0x1388F, size: 0x8, addend: 0x0, symName: __ZNSt3__16vectorIxNS_9allocatorIxEEE7__allocB7v160006Ev, symObjAddr: 0x359C, symBinAddr: 0x100004004, symSize: 0x28 }
  - { offsetInCU: 0x138B5, offset: 0x138B5, size: 0x8, addend: 0x0, symName: __ZNSt3__16vectorIxNS_9allocatorIxEEE9__end_capB7v160006Ev, symObjAddr: 0x35C4, symBinAddr: 0x10000402C, symSize: 0x28 }
  - { offsetInCU: 0x138DB, offset: 0x138DB, size: 0x8, addend: 0x0, symName: __ZNKSt3__16vectorIxNS_9allocatorIxEEE14__annotate_newB7v160006Em, symObjAddr: 0x35EC, symBinAddr: 0x100004054, symSize: 0xAC }
  - { offsetInCU: 0x1391A, offset: 0x1391A, size: 0x8, addend: 0x0, symName: __ZNSt3__116allocator_traitsINS_9allocatorIxEEE8max_sizeB7v160006IS2_vEEmRKS2_, symObjAddr: 0x36C4, symBinAddr: 0x10000412C, symSize: 0x24 }
  - { offsetInCU: 0x13948, offset: 0x13948, size: 0x8, addend: 0x0, symName: __ZNKSt3__16vectorIxNS_9allocatorIxEEE7__allocB7v160006Ev, symObjAddr: 0x36E8, symBinAddr: 0x100004150, symSize: 0x28 }
  - { offsetInCU: 0x1396E, offset: 0x1396E, size: 0x8, addend: 0x0, symName: __ZNSt3__114numeric_limitsIlE3maxB7v160006Ev, symObjAddr: 0x3710, symBinAddr: 0x100004178, symSize: 0x14 }
  - { offsetInCU: 0x13982, offset: 0x13982, size: 0x8, addend: 0x0, symName: __ZNKSt3__19allocatorIxE8max_sizeB7v160006Ev, symObjAddr: 0x3778, symBinAddr: 0x1000041E0, symSize: 0x14 }
  - { offsetInCU: 0x139A8, offset: 0x139A8, size: 0x8, addend: 0x0, symName: __ZNKSt3__117__compressed_pairIPxNS_9allocatorIxEEE6secondB7v160006Ev, symObjAddr: 0x378C, symBinAddr: 0x1000041F4, symSize: 0x24 }
  - { offsetInCU: 0x139CE, offset: 0x139CE, size: 0x8, addend: 0x0, symName: __ZNKSt3__122__compressed_pair_elemINS_9allocatorIxEELi1ELb1EE5__getB7v160006Ev, symObjAddr: 0x37B0, symBinAddr: 0x100004218, symSize: 0x14 }
  - { offsetInCU: 0x139F4, offset: 0x139F4, size: 0x8, addend: 0x0, symName: __ZNSt3__123__libcpp_numeric_limitsIlLb1EE3maxB7v160006Ev, symObjAddr: 0x37C4, symBinAddr: 0x10000422C, symSize: 0x8 }
  - { offsetInCU: 0x13A08, offset: 0x13A08, size: 0x8, addend: 0x0, symName: __ZNSt12length_errorC1B7v160006EPKc, symObjAddr: 0x3830, symBinAddr: 0x100004298, symSize: 0x34 }
  - { offsetInCU: 0x13A40, offset: 0x13A40, size: 0x8, addend: 0x0, symName: __ZNSt12length_errorC2B7v160006EPKc, symObjAddr: 0x3864, symBinAddr: 0x1000042CC, symSize: 0x4C }
  - { offsetInCU: 0x13A78, offset: 0x13A78, size: 0x8, addend: 0x0, symName: __ZNSt3__19allocatorIxE8allocateB7v160006Em, symObjAddr: 0x38B0, symBinAddr: 0x100004318, symSize: 0x58 }
  - { offsetInCU: 0x13AAC, offset: 0x13AAC, size: 0x8, addend: 0x0, symName: __ZNSt3__117__compressed_pairIPxNS_9allocatorIxEEE6secondB7v160006Ev, symObjAddr: 0x3908, symBinAddr: 0x100004370, symSize: 0x24 }
  - { offsetInCU: 0x13AD2, offset: 0x13AD2, size: 0x8, addend: 0x0, symName: __ZNSt3__122__compressed_pair_elemINS_9allocatorIxEELi1ELb1EE5__getB7v160006Ev, symObjAddr: 0x392C, symBinAddr: 0x100004394, symSize: 0x14 }
  - { offsetInCU: 0x13AF8, offset: 0x13AF8, size: 0x8, addend: 0x0, symName: __ZNSt3__117__compressed_pairIPxNS_9allocatorIxEEE5firstB7v160006Ev, symObjAddr: 0x3940, symBinAddr: 0x1000043A8, symSize: 0x24 }
  - { offsetInCU: 0x13B1E, offset: 0x13B1E, size: 0x8, addend: 0x0, symName: __ZNSt3__122__compressed_pair_elemIPxLi0ELb0EE5__getB7v160006Ev, symObjAddr: 0x3964, symBinAddr: 0x1000043CC, symSize: 0x14 }
  - { offsetInCU: 0x13B44, offset: 0x13B44, size: 0x8, addend: 0x0, symName: __ZNKSt3__16vectorIxNS_9allocatorIxEEE31__annotate_contiguous_containerB7v160006EPKvS5_S5_S5_, symObjAddr: 0x3978, symBinAddr: 0x1000043E0, symSize: 0x20 }
  - { offsetInCU: 0x13B9A, offset: 0x13B9A, size: 0x8, addend: 0x0, symName: __ZNKSt3__16vectorIxNS_9allocatorIxEEE4dataB7v160006Ev, symObjAddr: 0x3998, symBinAddr: 0x100004400, symSize: 0x28 }
  - { offsetInCU: 0x13BC0, offset: 0x13BC0, size: 0x8, addend: 0x0, symName: __ZNKSt3__16vectorIxNS_9allocatorIxEEE8capacityB7v160006Ev, symObjAddr: 0x39C0, symBinAddr: 0x100004428, symSize: 0x40 }
  - { offsetInCU: 0x13BE6, offset: 0x13BE6, size: 0x8, addend: 0x0, symName: __ZNKSt3__16vectorIxNS_9allocatorIxEEE9__end_capB7v160006Ev, symObjAddr: 0x3A14, symBinAddr: 0x10000447C, symSize: 0x28 }
  - { offsetInCU: 0x13C0C, offset: 0x13C0C, size: 0x8, addend: 0x0, symName: __ZNKSt3__117__compressed_pairIPxNS_9allocatorIxEEE5firstB7v160006Ev, symObjAddr: 0x3A3C, symBinAddr: 0x1000044A4, symSize: 0x24 }
  - { offsetInCU: 0x13C32, offset: 0x13C32, size: 0x8, addend: 0x0, symName: __ZNKSt3__122__compressed_pair_elemIPxLi0ELb0EE5__getB7v160006Ev, symObjAddr: 0x3A60, symBinAddr: 0x1000044C8, symSize: 0x14 }
  - { offsetInCU: 0x13C71, offset: 0x13C71, size: 0x8, addend: 0x0, symName: __ZNSt3__16vectorIxNS_9allocatorIxEEE21_ConstructTransactionC1B7v160006ERS3_m, symObjAddr: 0x3A74, symBinAddr: 0x1000044DC, symSize: 0x3C }
  - { offsetInCU: 0x13CB9, offset: 0x13CB9, size: 0x8, addend: 0x0, symName: __ZNSt3__116allocator_traitsINS_9allocatorIxEEE9constructB7v160006IxJEvEEvRS2_PT_DpOT0_, symObjAddr: 0x3AB0, symBinAddr: 0x100004518, symSize: 0x2C }
  - { offsetInCU: 0x13CFB, offset: 0x13CFB, size: 0x8, addend: 0x0, symName: __ZNSt3__16vectorIxNS_9allocatorIxEEE21_ConstructTransactionD1B7v160006Ev, symObjAddr: 0x3ADC, symBinAddr: 0x100004544, symSize: 0x2C }
  - { offsetInCU: 0x13D25, offset: 0x13D25, size: 0x8, addend: 0x0, symName: __ZNSt3__16vectorIxNS_9allocatorIxEEE21_ConstructTransactionC2B7v160006ERS3_m, symObjAddr: 0x3B08, symBinAddr: 0x100004570, symSize: 0x44 }
  - { offsetInCU: 0x13D6D, offset: 0x13D6D, size: 0x8, addend: 0x0, symName: __ZNSt3__19allocatorIxE9constructB7v160006IxJEEEvPT_DpOT0_, symObjAddr: 0x3B4C, symBinAddr: 0x1000045B4, symSize: 0x1C }
  - { offsetInCU: 0x13DAF, offset: 0x13DAF, size: 0x8, addend: 0x0, symName: __ZNSt3__16vectorIxNS_9allocatorIxEEE21_ConstructTransactionD2B7v160006Ev, symObjAddr: 0x3B68, symBinAddr: 0x1000045D0, symSize: 0x20 }
  - { offsetInCU: 0x13DD9, offset: 0x13DD9, size: 0x8, addend: 0x0, symName: __ZNSt3__128__exception_guard_exceptionsINS_6vectorIxNS_9allocatorIxEEE16__destroy_vectorEED2B7v160006Ev, symObjAddr: 0x3B88, symBinAddr: 0x1000045F0, symSize: 0x50 }
  - { offsetInCU: 0x13E03, offset: 0x13E03, size: 0x8, addend: 0x0, symName: __ZNSt3__16vectorIxNS_9allocatorIxEEE16__destroy_vectorclB7v160006Ev, symObjAddr: 0x3BD8, symBinAddr: 0x100004640, symSize: 0x9C }
  - { offsetInCU: 0x13E29, offset: 0x13E29, size: 0x8, addend: 0x0, symName: __ZNKSt3__16vectorIxNS_9allocatorIxEEE17__annotate_deleteB7v160006Ev, symObjAddr: 0x3C74, symBinAddr: 0x1000046DC, symSize: 0xB8 }
  - { offsetInCU: 0x13E4F, offset: 0x13E4F, size: 0x8, addend: 0x0, symName: __ZNSt3__16vectorIxNS_9allocatorIxEEE7__clearB7v160006Ev, symObjAddr: 0x3D3C, symBinAddr: 0x1000047A4, symSize: 0x28 }
  - { offsetInCU: 0x13E75, offset: 0x13E75, size: 0x8, addend: 0x0, symName: __ZNSt3__116allocator_traitsINS_9allocatorIxEEE10deallocateB7v160006ERS2_Pxm, symObjAddr: 0x3D64, symBinAddr: 0x1000047CC, symSize: 0x34 }
  - { offsetInCU: 0x13EB7, offset: 0x13EB7, size: 0x8, addend: 0x0, symName: __ZNKSt3__16vectorIxNS_9allocatorIxEEE4sizeB7v160006Ev, symObjAddr: 0x3D98, symBinAddr: 0x100004800, symSize: 0x28 }
  - { offsetInCU: 0x13EDD, offset: 0x13EDD, size: 0x8, addend: 0x0, symName: __ZNSt3__16vectorIxNS_9allocatorIxEEE22__base_destruct_at_endB7v160006EPx, symObjAddr: 0x3DC0, symBinAddr: 0x100004828, symSize: 0x8C }
  - { offsetInCU: 0x13F21, offset: 0x13F21, size: 0x8, addend: 0x0, symName: __ZNSt3__116allocator_traitsINS_9allocatorIxEEE7destroyB7v160006IxvEEvRS2_PT_, symObjAddr: 0x3E4C, symBinAddr: 0x1000048B4, symSize: 0x2C }
  - { offsetInCU: 0x13F5E, offset: 0x13F5E, size: 0x8, addend: 0x0, symName: __ZNSt3__19allocatorIxE7destroyB7v160006EPx, symObjAddr: 0x3E78, symBinAddr: 0x1000048E0, symSize: 0x14 }
  - { offsetInCU: 0x13F92, offset: 0x13F92, size: 0x8, addend: 0x0, symName: __ZNSt3__19allocatorIxE10deallocateB7v160006EPxm, symObjAddr: 0x3E8C, symBinAddr: 0x1000048F4, symSize: 0x40 }
  - { offsetInCU: 0x13FD4, offset: 0x13FD4, size: 0x8, addend: 0x0, symName: __ZNSt3__16vectorIxNS_9allocatorIxEEED2B7v160006Ev, symObjAddr: 0x3ECC, symBinAddr: 0x100004934, symSize: 0x44 }
  - { offsetInCU: 0x13FFE, offset: 0x13FFE, size: 0x8, addend: 0x0, symName: __ZNSt3__16vectorIxNS_9allocatorIxEEE11__make_iterB7v160006EPx, symObjAddr: 0x3F10, symBinAddr: 0x100004978, symSize: 0x34 }
  - { offsetInCU: 0x14033, offset: 0x14033, size: 0x8, addend: 0x0, symName: __ZNSt3__111__wrap_iterIPxEC1B7v160006EPKvS1_, symObjAddr: 0x3F44, symBinAddr: 0x1000049AC, symSize: 0x3C }
  - { offsetInCU: 0x14079, offset: 0x14079, size: 0x8, addend: 0x0, symName: __ZNSt3__111__wrap_iterIPxEC2B7v160006EPKvS1_, symObjAddr: 0x3F80, symBinAddr: 0x1000049E8, symSize: 0x24 }
  - { offsetInCU: 0x140BF, offset: 0x140BF, size: 0x8, addend: 0x0, symName: __ZNSt3__118__unwrap_iter_implINS_11__wrap_iterIPxEELb1EE8__unwrapB7v160006ES3_, symObjAddr: 0x40A8, symBinAddr: 0x100004B10, symSize: 0x28 }
  - { offsetInCU: 0x140EC, offset: 0x140EC, size: 0x8, addend: 0x0, symName: __ZNSt3__119__to_address_helperINS_11__wrap_iterIPxEEvE6__callB7v160006ERKS3_, symObjAddr: 0x40F4, symBinAddr: 0x100004B5C, symSize: 0x30 }
  - { offsetInCU: 0x1410F, offset: 0x1410F, size: 0x8, addend: 0x0, symName: __ZNSt3__114pointer_traitsINS_11__wrap_iterIPxEEE10to_addressB7v160006ES3_, symObjAddr: 0x4124, symBinAddr: 0x100004B8C, symSize: 0x2C }
  - { offsetInCU: 0x14133, offset: 0x14133, size: 0x8, addend: 0x0, symName: __ZNKSt3__111__wrap_iterIPxE4baseB7v160006Ev, symObjAddr: 0x4150, symBinAddr: 0x100004BB8, symSize: 0x18 }
  - { offsetInCU: 0x14159, offset: 0x14159, size: 0x8, addend: 0x0, symName: __ZNSt3__13mapIxxNS_4lessIxEENS_9allocatorINS_4pairIKxxEEEEEC2B7v160006Ev, symObjAddr: 0x4168, symBinAddr: 0x100004BD0, symSize: 0x40 }
  - { offsetInCU: 0x14183, offset: 0x14183, size: 0x8, addend: 0x0, symName: __ZNSt3__119__map_value_compareIxNS_12__value_typeIxxEENS_4lessIxEELb1EEC1B7v160006ES4_, symObjAddr: 0x41A8, symBinAddr: 0x100004C10, symSize: 0x2C }
  - { offsetInCU: 0x141BC, offset: 0x141BC, size: 0x8, addend: 0x0, symName: __ZNSt3__16__treeINS_12__value_typeIxxEENS_19__map_value_compareIxS2_NS_4lessIxEELb1EEENS_9allocatorIS2_EEEC1ERKS6_, symObjAddr: 0x41D4, symBinAddr: 0x100004C3C, symSize: 0x34 }
  - { offsetInCU: 0x141F7, offset: 0x141F7, size: 0x8, addend: 0x0, symName: __ZNSt3__119__map_value_compareIxNS_12__value_typeIxxEENS_4lessIxEELb1EEC2B7v160006ES4_, symObjAddr: 0x4208, symBinAddr: 0x100004C70, symSize: 0x14 }
  - { offsetInCU: 0x14230, offset: 0x14230, size: 0x8, addend: 0x0, symName: __ZNSt3__16__treeINS_12__value_typeIxxEENS_19__map_value_compareIxS2_NS_4lessIxEELb1EEENS_9allocatorIS2_EEEC2ERKS6_, symObjAddr: 0x421C, symBinAddr: 0x100004C84, symSize: 0x7C }
  - { offsetInCU: 0x1426B, offset: 0x1426B, size: 0x8, addend: 0x0, symName: __ZNSt3__117__compressed_pairINS_15__tree_end_nodeIPNS_16__tree_node_baseIPvEEEENS_9allocatorINS_11__tree_nodeINS_12__value_typeIxxEES3_EEEEEC1B7v160006ILb1EvEEv, symObjAddr: 0x4298, symBinAddr: 0x100004D00, symSize: 0x2C }
  - { offsetInCU: 0x142A5, offset: 0x142A5, size: 0x8, addend: 0x0, symName: __ZNSt3__117__compressed_pairImNS_19__map_value_compareIxNS_12__value_typeIxxEENS_4lessIxEELb1EEEEC1B7v160006IiRKS6_EEOT_OT0_, symObjAddr: 0x42C4, symBinAddr: 0x100004D2C, symSize: 0x3C }
  - { offsetInCU: 0x142FD, offset: 0x142FD, size: 0x8, addend: 0x0, symName: __ZNSt3__16__treeINS_12__value_typeIxxEENS_19__map_value_compareIxS2_NS_4lessIxEELb1EEENS_9allocatorIS2_EEE10__end_nodeB7v160006Ev, symObjAddr: 0x4300, symBinAddr: 0x100004D68, symSize: 0x2C }
  - { offsetInCU: 0x14323, offset: 0x14323, size: 0x8, addend: 0x0, symName: __ZNSt3__16__treeINS_12__value_typeIxxEENS_19__map_value_compareIxS2_NS_4lessIxEELb1EEENS_9allocatorIS2_EEE12__begin_nodeB7v160006Ev, symObjAddr: 0x432C, symBinAddr: 0x100004D94, symSize: 0x14 }
  - { offsetInCU: 0x14349, offset: 0x14349, size: 0x8, addend: 0x0, symName: __ZNSt3__117__compressed_pairINS_15__tree_end_nodeIPNS_16__tree_node_baseIPvEEEENS_9allocatorINS_11__tree_nodeINS_12__value_typeIxxEES3_EEEEEC2B7v160006ILb1EvEEv, symObjAddr: 0x4340, symBinAddr: 0x100004DA8, symSize: 0x34 }
  - { offsetInCU: 0x1437E, offset: 0x1437E, size: 0x8, addend: 0x0, symName: __ZNSt3__122__compressed_pair_elemINS_15__tree_end_nodeIPNS_16__tree_node_baseIPvEEEELi0ELb0EEC2B7v160006ENS_16__value_init_tagE, symObjAddr: 0x4374, symBinAddr: 0x100004DDC, symSize: 0x2C }
  - { offsetInCU: 0x143B3, offset: 0x143B3, size: 0x8, addend: 0x0, symName: __ZNSt3__122__compressed_pair_elemINS_9allocatorINS_11__tree_nodeINS_12__value_typeIxxEEPvEEEELi1ELb1EEC2B7v160006ENS_16__value_init_tagE, symObjAddr: 0x43A0, symBinAddr: 0x100004E08, symSize: 0x2C }
  - { offsetInCU: 0x143E8, offset: 0x143E8, size: 0x8, addend: 0x0, symName: __ZNSt3__115__tree_end_nodeIPNS_16__tree_node_baseIPvEEEC1B7v160006Ev, symObjAddr: 0x43CC, symBinAddr: 0x100004E34, symSize: 0x2C }
  - { offsetInCU: 0x14412, offset: 0x14412, size: 0x8, addend: 0x0, symName: __ZNSt3__115__tree_end_nodeIPNS_16__tree_node_baseIPvEEEC2B7v160006Ev, symObjAddr: 0x43F8, symBinAddr: 0x100004E60, symSize: 0x18 }
  - { offsetInCU: 0x1443C, offset: 0x1443C, size: 0x8, addend: 0x0, symName: __ZNSt3__19allocatorINS_11__tree_nodeINS_12__value_typeIxxEEPvEEEC2B7v160006Ev, symObjAddr: 0x4410, symBinAddr: 0x100004E78, symSize: 0x2C }
  - { offsetInCU: 0x14466, offset: 0x14466, size: 0x8, addend: 0x0, symName: __ZNSt3__116__non_trivial_ifILb1ENS_9allocatorINS_11__tree_nodeINS_12__value_typeIxxEEPvEEEEEC2B7v160006Ev, symObjAddr: 0x443C, symBinAddr: 0x100004EA4, symSize: 0x14 }
  - { offsetInCU: 0x14490, offset: 0x14490, size: 0x8, addend: 0x0, symName: __ZNSt3__117__compressed_pairImNS_19__map_value_compareIxNS_12__value_typeIxxEENS_4lessIxEELb1EEEEC2B7v160006IiRKS6_EEOT_OT0_, symObjAddr: 0x4450, symBinAddr: 0x100004EB8, symSize: 0x44 }
  - { offsetInCU: 0x144E8, offset: 0x144E8, size: 0x8, addend: 0x0, symName: __ZNSt3__122__compressed_pair_elemImLi0ELb0EEC2B7v160006IivEEOT_, symObjAddr: 0x4494, symBinAddr: 0x100004EFC, symSize: 0x24 }
  - { offsetInCU: 0x1452A, offset: 0x1452A, size: 0x8, addend: 0x0, symName: __ZNSt3__122__compressed_pair_elemINS_19__map_value_compareIxNS_12__value_typeIxxEENS_4lessIxEELb1EEELi1ELb1EEC2B7v160006IRKS6_vEEOT_, symObjAddr: 0x44B8, symBinAddr: 0x100004F20, symSize: 0x18 }
  - { offsetInCU: 0x1456C, offset: 0x1456C, size: 0x8, addend: 0x0, symName: __ZNSt3__114pointer_traitsIPNS_15__tree_end_nodeIPNS_16__tree_node_baseIPvEEEEE10pointer_toB7v160006ERS6_, symObjAddr: 0x44D0, symBinAddr: 0x100004F38, symSize: 0x14 }
  - { offsetInCU: 0x1458F, offset: 0x1458F, size: 0x8, addend: 0x0, symName: __ZNSt3__117__compressed_pairINS_15__tree_end_nodeIPNS_16__tree_node_baseIPvEEEENS_9allocatorINS_11__tree_nodeINS_12__value_typeIxxEES3_EEEEE5firstB7v160006Ev, symObjAddr: 0x44E4, symBinAddr: 0x100004F4C, symSize: 0x24 }
  - { offsetInCU: 0x145B5, offset: 0x145B5, size: 0x8, addend: 0x0, symName: __ZNSt3__122__compressed_pair_elemINS_15__tree_end_nodeIPNS_16__tree_node_baseIPvEEEELi0ELb0EE5__getB7v160006Ev, symObjAddr: 0x4508, symBinAddr: 0x100004F70, symSize: 0x14 }
  - { offsetInCU: 0x145DB, offset: 0x145DB, size: 0x8, addend: 0x0, symName: __ZNSt3__13mapIxxNS_4lessIxEENS_9allocatorINS_4pairIKxxEEEEED2B7v160006Ev, symObjAddr: 0x451C, symBinAddr: 0x100004F84, symSize: 0x2C }
  - { offsetInCU: 0x14605, offset: 0x14605, size: 0x8, addend: 0x0, symName: __ZNSt3__16__treeINS_12__value_typeIxxEENS_19__map_value_compareIxS2_NS_4lessIxEELb1EEENS_9allocatorIS2_EEED1Ev, symObjAddr: 0x4548, symBinAddr: 0x100004FB0, symSize: 0x2C }
  - { offsetInCU: 0x14631, offset: 0x14631, size: 0x8, addend: 0x0, symName: __ZNSt3__16__treeINS_12__value_typeIxxEENS_19__map_value_compareIxS2_NS_4lessIxEELb1EEENS_9allocatorIS2_EEED2Ev, symObjAddr: 0x4574, symBinAddr: 0x100004FDC, symSize: 0x38 }
  - { offsetInCU: 0x1465D, offset: 0x1465D, size: 0x8, addend: 0x0, symName: __ZNSt3__16__treeINS_12__value_typeIxxEENS_19__map_value_compareIxS2_NS_4lessIxEELb1EEENS_9allocatorIS2_EEE7destroyEPNS_11__tree_nodeIS2_PvEE, symObjAddr: 0x45AC, symBinAddr: 0x100005014, symSize: 0xAC }
  - { offsetInCU: 0x146A9, offset: 0x146A9, size: 0x8, addend: 0x0, symName: __ZNKSt3__16__treeINS_12__value_typeIxxEENS_19__map_value_compareIxS2_NS_4lessIxEELb1EEENS_9allocatorIS2_EEE6__rootB7v160006Ev, symObjAddr: 0x4658, symBinAddr: 0x1000050C0, symSize: 0x28 }
  - { offsetInCU: 0x146CF, offset: 0x146CF, size: 0x8, addend: 0x0, symName: __ZNSt3__16__treeINS_12__value_typeIxxEENS_19__map_value_compareIxS2_NS_4lessIxEELb1EEENS_9allocatorIS2_EEE12__node_allocB7v160006Ev, symObjAddr: 0x4680, symBinAddr: 0x1000050E8, symSize: 0x28 }
  - { offsetInCU: 0x146F5, offset: 0x146F5, size: 0x8, addend: 0x0, symName: __ZNSt3__116allocator_traitsINS_9allocatorINS_11__tree_nodeINS_12__value_typeIxxEEPvEEEEE7destroyB7v160006INS_4pairIKxxEEvvEEvRS7_PT_, symObjAddr: 0x46A8, symBinAddr: 0x100005110, symSize: 0x14 }
  - { offsetInCU: 0x14730, offset: 0x14730, size: 0x8, addend: 0x0, symName: __ZNSt3__122__tree_key_value_typesINS_12__value_typeIxxEEE9__get_ptrB7v160006ERS2_, symObjAddr: 0x46BC, symBinAddr: 0x100005124, symSize: 0x24 }
  - { offsetInCU: 0x14754, offset: 0x14754, size: 0x8, addend: 0x0, symName: __ZNSt3__116allocator_traitsINS_9allocatorINS_11__tree_nodeINS_12__value_typeIxxEEPvEEEEE10deallocateB7v160006ERS7_PS6_m, symObjAddr: 0x46E0, symBinAddr: 0x100005148, symSize: 0x34 }
  - { offsetInCU: 0x14796, offset: 0x14796, size: 0x8, addend: 0x0, symName: __ZNSt3__117__compressed_pairINS_15__tree_end_nodeIPNS_16__tree_node_baseIPvEEEENS_9allocatorINS_11__tree_nodeINS_12__value_typeIxxEES3_EEEEE6secondB7v160006Ev, symObjAddr: 0x4714, symBinAddr: 0x10000517C, symSize: 0x24 }
  - { offsetInCU: 0x147BC, offset: 0x147BC, size: 0x8, addend: 0x0, symName: __ZNSt3__122__compressed_pair_elemINS_9allocatorINS_11__tree_nodeINS_12__value_typeIxxEEPvEEEELi1ELb1EE5__getB7v160006Ev, symObjAddr: 0x4738, symBinAddr: 0x1000051A0, symSize: 0x14 }
  - { offsetInCU: 0x147E2, offset: 0x147E2, size: 0x8, addend: 0x0, symName: __ZNSt3__112__value_typeIxxE11__get_valueB7v160006Ev, symObjAddr: 0x474C, symBinAddr: 0x1000051B4, symSize: 0x14 }
  - { offsetInCU: 0x14808, offset: 0x14808, size: 0x8, addend: 0x0, symName: __ZNSt3__19allocatorINS_11__tree_nodeINS_12__value_typeIxxEEPvEEE10deallocateB7v160006EPS5_m, symObjAddr: 0x4760, symBinAddr: 0x1000051C8, symSize: 0x44 }
  - { offsetInCU: 0x1484A, offset: 0x1484A, size: 0x8, addend: 0x0, symName: __ZNKSt3__16__treeINS_12__value_typeIxxEENS_19__map_value_compareIxS2_NS_4lessIxEELb1EEENS_9allocatorIS2_EEE10__end_nodeB7v160006Ev, symObjAddr: 0x47A4, symBinAddr: 0x10000520C, symSize: 0x2C }
  - { offsetInCU: 0x14870, offset: 0x14870, size: 0x8, addend: 0x0, symName: __ZNKSt3__117__compressed_pairINS_15__tree_end_nodeIPNS_16__tree_node_baseIPvEEEENS_9allocatorINS_11__tree_nodeINS_12__value_typeIxxEES3_EEEEE5firstB7v160006Ev, symObjAddr: 0x47D0, symBinAddr: 0x100005238, symSize: 0x24 }
  - { offsetInCU: 0x14896, offset: 0x14896, size: 0x8, addend: 0x0, symName: __ZNKSt3__122__compressed_pair_elemINS_15__tree_end_nodeIPNS_16__tree_node_baseIPvEEEELi0ELb0EE5__getB7v160006Ev, symObjAddr: 0x47F4, symBinAddr: 0x10000525C, symSize: 0x14 }
  - { offsetInCU: 0x148D0, offset: 0x148D0, size: 0x8, addend: 0x0, symName: __ZNSt3__16__treeINS_12__value_typeIxxEENS_19__map_value_compareIxS2_NS_4lessIxEELb1EEENS_9allocatorIS2_EEE25__emplace_unique_key_argsIxJRKNS_21piecewise_construct_tENS_5tupleIJRKxEEENSE_IJEEEEEENS_4pairINS_15__tree_iteratorIS2_PNS_11__tree_nodeIS2_PvEElEEbEERKT_DpOT0_, symObjAddr: 0x4808, symBinAddr: 0x100005270, symSize: 0x100 }
  - { offsetInCU: 0x149A6, offset: 0x149A6, size: 0x8, addend: 0x0, symName: __ZNKSt3__115__tree_iteratorINS_12__value_typeIxxEEPNS_11__tree_nodeIS2_PvEElEptB7v160006Ev, symObjAddr: 0x4938, symBinAddr: 0x1000053A0, symSize: 0x2C }
  - { offsetInCU: 0x149CC, offset: 0x149CC, size: 0x8, addend: 0x0, symName: __ZNSt3__16__treeINS_12__value_typeIxxEENS_19__map_value_compareIxS2_NS_4lessIxEELb1EEENS_9allocatorIS2_EEE12__find_equalIxEERPNS_16__tree_node_baseIPvEERPNS_15__tree_end_nodeISE_EERKT_, symObjAddr: 0x4964, symBinAddr: 0x1000053CC, symSize: 0x184 }
  - { offsetInCU: 0x14A39, offset: 0x14A39, size: 0x8, addend: 0x0, symName: __ZNSt3__16__treeINS_12__value_typeIxxEENS_19__map_value_compareIxS2_NS_4lessIxEELb1EEENS_9allocatorIS2_EEE16__construct_nodeIJRKNS_21piecewise_construct_tENS_5tupleIJRKxEEENSE_IJEEEEEENS_10unique_ptrINS_11__tree_nodeIS2_PvEENS_22__tree_node_destructorINS7_ISM_EEEEEEDpOT_, symObjAddr: 0x4AE8, symBinAddr: 0x100005550, symSize: 0x120 }
  - { offsetInCU: 0x14AC2, offset: 0x14AC2, size: 0x8, addend: 0x0, symName: __ZNSt3__16__treeINS_12__value_typeIxxEENS_19__map_value_compareIxS2_NS_4lessIxEELb1EEENS_9allocatorIS2_EEE16__insert_node_atEPNS_15__tree_end_nodeIPNS_16__tree_node_baseIPvEEEERSE_SE_, symObjAddr: 0x4C08, symBinAddr: 0x100005670, symSize: 0xCC }
  - { offsetInCU: 0x14B17, offset: 0x14B17, size: 0x8, addend: 0x0, symName: __ZNKSt3__110unique_ptrINS_11__tree_nodeINS_12__value_typeIxxEEPvEENS_22__tree_node_destructorINS_9allocatorIS5_EEEEE3getB7v160006Ev, symObjAddr: 0x4CD4, symBinAddr: 0x10000573C, symSize: 0x28 }
  - { offsetInCU: 0x14B3D, offset: 0x14B3D, size: 0x8, addend: 0x0, symName: __ZNSt3__110unique_ptrINS_11__tree_nodeINS_12__value_typeIxxEEPvEENS_22__tree_node_destructorINS_9allocatorIS5_EEEEE7releaseB7v160006Ev, symObjAddr: 0x4CFC, symBinAddr: 0x100005764, symSize: 0x44 }
  - { offsetInCU: 0x14B72, offset: 0x14B72, size: 0x8, addend: 0x0, symName: __ZNSt3__110unique_ptrINS_11__tree_nodeINS_12__value_typeIxxEEPvEENS_22__tree_node_destructorINS_9allocatorIS5_EEEEED1B7v160006Ev, symObjAddr: 0x4D40, symBinAddr: 0x1000057A8, symSize: 0x2C }
  - { offsetInCU: 0x14B9C, offset: 0x14B9C, size: 0x8, addend: 0x0, symName: __ZNSt3__115__tree_iteratorINS_12__value_typeIxxEEPNS_11__tree_nodeIS2_PvEElEC1B7v160006ES6_, symObjAddr: 0x4D6C, symBinAddr: 0x1000057D4, symSize: 0x34 }
  - { offsetInCU: 0x14BDA, offset: 0x14BDA, size: 0x8, addend: 0x0, symName: __ZNSt3__14pairINS_15__tree_iteratorINS_12__value_typeIxxEEPNS_11__tree_nodeIS3_PvEElEEbEC1B7v160006IS8_RbLS5_0EEEOT_OT0_, symObjAddr: 0x4DA0, symBinAddr: 0x100005808, symSize: 0x3C }
  - { offsetInCU: 0x14C38, offset: 0x14C38, size: 0x8, addend: 0x0, symName: __ZNKSt3__16__treeINS_12__value_typeIxxEENS_19__map_value_compareIxS2_NS_4lessIxEELb1EEENS_9allocatorIS2_EEE10__root_ptrEv, symObjAddr: 0x4DDC, symBinAddr: 0x100005844, symSize: 0x24 }
  - { offsetInCU: 0x14C5E, offset: 0x14C5E, size: 0x8, addend: 0x0, symName: __ZNSt3__16__treeINS_12__value_typeIxxEENS_19__map_value_compareIxS2_NS_4lessIxEELb1EEENS_9allocatorIS2_EEE10value_compB7v160006Ev, symObjAddr: 0x4E00, symBinAddr: 0x100005868, symSize: 0x28 }
  - { offsetInCU: 0x14C84, offset: 0x14C84, size: 0x8, addend: 0x0, symName: __ZNKSt3__119__map_value_compareIxNS_12__value_typeIxxEENS_4lessIxEELb1EEclB7v160006ERKxRKS2_, symObjAddr: 0x4E28, symBinAddr: 0x100005890, symSize: 0x50 }
  - { offsetInCU: 0x14CC8, offset: 0x14CC8, size: 0x8, addend: 0x0, symName: __ZNKSt3__119__map_value_compareIxNS_12__value_typeIxxEENS_4lessIxEELb1EEclB7v160006ERKS2_RKx, symObjAddr: 0x4E78, symBinAddr: 0x1000058E0, symSize: 0x48 }
  - { offsetInCU: 0x14D0C, offset: 0x14D0C, size: 0x8, addend: 0x0, symName: __ZNSt3__117__compressed_pairImNS_19__map_value_compareIxNS_12__value_typeIxxEENS_4lessIxEELb1EEEE6secondB7v160006Ev, symObjAddr: 0x4EC0, symBinAddr: 0x100005928, symSize: 0x24 }
  - { offsetInCU: 0x14D32, offset: 0x14D32, size: 0x8, addend: 0x0, symName: __ZNSt3__122__compressed_pair_elemINS_19__map_value_compareIxNS_12__value_typeIxxEENS_4lessIxEELb1EEELi1ELb1EE5__getB7v160006Ev, symObjAddr: 0x4EE4, symBinAddr: 0x10000594C, symSize: 0x14 }
  - { offsetInCU: 0x14D58, offset: 0x14D58, size: 0x8, addend: 0x0, symName: __ZNKSt3__14lessIxEclB7v160006ERKxS3_, symObjAddr: 0x4EF8, symBinAddr: 0x100005960, symSize: 0x34 }
  - { offsetInCU: 0x14D9C, offset: 0x14D9C, size: 0x8, addend: 0x0, symName: __ZNKSt3__112__value_typeIxxE11__get_valueB7v160006Ev, symObjAddr: 0x4F2C, symBinAddr: 0x100005994, symSize: 0x14 }
  - { offsetInCU: 0x14DC2, offset: 0x14DC2, size: 0x8, addend: 0x0, symName: __ZNSt3__116allocator_traitsINS_9allocatorINS_11__tree_nodeINS_12__value_typeIxxEEPvEEEEE8allocateB7v160006ERS7_m, symObjAddr: 0x4F40, symBinAddr: 0x1000059A8, symSize: 0x2C }
  - { offsetInCU: 0x14DF5, offset: 0x14DF5, size: 0x8, addend: 0x0, symName: __ZNSt3__122__tree_node_destructorINS_9allocatorINS_11__tree_nodeINS_12__value_typeIxxEEPvEEEEEC1B7v160006ERS7_b, symObjAddr: 0x4F6C, symBinAddr: 0x1000059D4, symSize: 0x48 }
  - { offsetInCU: 0x14E42, offset: 0x14E42, size: 0x8, addend: 0x0, symName: __ZNSt3__110unique_ptrINS_11__tree_nodeINS_12__value_typeIxxEEPvEENS_22__tree_node_destructorINS_9allocatorIS5_EEEEEC1B7v160006ILb1EvEEPS5_NS_16__dependent_typeINS_27__unique_ptr_deleter_sfinaeIS9_EEXT_EE20__good_rval_ref_typeE, symObjAddr: 0x4FB4, symBinAddr: 0x100005A1C, symSize: 0x3C }
  - { offsetInCU: 0x14E93, offset: 0x14E93, size: 0x8, addend: 0x0, symName: __ZNSt3__116allocator_traitsINS_9allocatorINS_11__tree_nodeINS_12__value_typeIxxEEPvEEEEE9constructB7v160006INS_4pairIKxxEEJRKNS_21piecewise_construct_tENS_5tupleIJRSB_EEENSG_IJEEEEvEEvRS7_PT_DpOT0_, symObjAddr: 0x4FF0, symBinAddr: 0x100005A58, symSize: 0x44 }
  - { offsetInCU: 0x14F12, offset: 0x14F12, size: 0x8, addend: 0x0, symName: __ZNKSt3__110unique_ptrINS_11__tree_nodeINS_12__value_typeIxxEEPvEENS_22__tree_node_destructorINS_9allocatorIS5_EEEEEptB7v160006Ev, symObjAddr: 0x5034, symBinAddr: 0x100005A9C, symSize: 0x28 }
  - { offsetInCU: 0x14F38, offset: 0x14F38, size: 0x8, addend: 0x0, symName: __ZNSt3__110unique_ptrINS_11__tree_nodeINS_12__value_typeIxxEEPvEENS_22__tree_node_destructorINS_9allocatorIS5_EEEEE11get_deleterB7v160006Ev, symObjAddr: 0x505C, symBinAddr: 0x100005AC4, symSize: 0x24 }
  - { offsetInCU: 0x14F5E, offset: 0x14F5E, size: 0x8, addend: 0x0, symName: __ZNSt3__19allocatorINS_11__tree_nodeINS_12__value_typeIxxEEPvEEE8allocateB7v160006Em, symObjAddr: 0x5080, symBinAddr: 0x100005AE8, symSize: 0x5C }
  - { offsetInCU: 0x14F9C, offset: 0x14F9C, size: 0x8, addend: 0x0, symName: __ZNSt3__116allocator_traitsINS_9allocatorINS_11__tree_nodeINS_12__value_typeIxxEEPvEEEEE8max_sizeB7v160006IS7_vEEmRKS7_, symObjAddr: 0x50DC, symBinAddr: 0x100005B44, symSize: 0x24 }
  - { offsetInCU: 0x14FCA, offset: 0x14FCA, size: 0x8, addend: 0x0, symName: __ZNKSt3__19allocatorINS_11__tree_nodeINS_12__value_typeIxxEEPvEEE8max_sizeB7v160006Ev, symObjAddr: 0x5100, symBinAddr: 0x100005B68, symSize: 0x18 }
  - { offsetInCU: 0x14FF0, offset: 0x14FF0, size: 0x8, addend: 0x0, symName: __ZNSt3__122__tree_node_destructorINS_9allocatorINS_11__tree_nodeINS_12__value_typeIxxEEPvEEEEEC2B7v160006ERS7_b, symObjAddr: 0x5118, symBinAddr: 0x100005B80, symSize: 0x38 }
  - { offsetInCU: 0x15038, offset: 0x15038, size: 0x8, addend: 0x0, symName: __ZNSt3__110unique_ptrINS_11__tree_nodeINS_12__value_typeIxxEEPvEENS_22__tree_node_destructorINS_9allocatorIS5_EEEEEC2B7v160006ILb1EvEEPS5_NS_16__dependent_typeINS_27__unique_ptr_deleter_sfinaeIS9_EEXT_EE20__good_rval_ref_typeE, symObjAddr: 0x5150, symBinAddr: 0x100005BB8, symSize: 0x48 }
  - { offsetInCU: 0x15089, offset: 0x15089, size: 0x8, addend: 0x0, symName: __ZNSt3__117__compressed_pairIPNS_11__tree_nodeINS_12__value_typeIxxEEPvEENS_22__tree_node_destructorINS_9allocatorIS5_EEEEEC1B7v160006IRS6_SA_EEOT_OT0_, symObjAddr: 0x5198, symBinAddr: 0x100005C00, symSize: 0x3C }
  - { offsetInCU: 0x150E1, offset: 0x150E1, size: 0x8, addend: 0x0, symName: __ZNSt3__117__compressed_pairIPNS_11__tree_nodeINS_12__value_typeIxxEEPvEENS_22__tree_node_destructorINS_9allocatorIS5_EEEEEC2B7v160006IRS6_SA_EEOT_OT0_, symObjAddr: 0x51D4, symBinAddr: 0x100005C3C, symSize: 0x48 }
  - { offsetInCU: 0x15139, offset: 0x15139, size: 0x8, addend: 0x0, symName: __ZNSt3__122__compressed_pair_elemIPNS_11__tree_nodeINS_12__value_typeIxxEEPvEELi0ELb0EEC2B7v160006IRS6_vEEOT_, symObjAddr: 0x521C, symBinAddr: 0x100005C84, symSize: 0x24 }
  - { offsetInCU: 0x1517B, offset: 0x1517B, size: 0x8, addend: 0x0, symName: __ZNSt3__122__compressed_pair_elemINS_22__tree_node_destructorINS_9allocatorINS_11__tree_nodeINS_12__value_typeIxxEEPvEEEEEELi1ELb0EEC2B7v160006IS9_vEEOT_, symObjAddr: 0x5240, symBinAddr: 0x100005CA8, symSize: 0x24 }
  - { offsetInCU: 0x151BD, offset: 0x151BD, size: 0x8, addend: 0x0, symName: __ZNSt3__19allocatorINS_11__tree_nodeINS_12__value_typeIxxEEPvEEE9constructB7v160006INS_4pairIKxxEEJRKNS_21piecewise_construct_tENS_5tupleIJRS9_EEENSE_IJEEEEEEvPT_DpOT0_, symObjAddr: 0x5264, symBinAddr: 0x100005CCC, symSize: 0x44 }
  - { offsetInCU: 0x15239, offset: 0x15239, size: 0x8, addend: 0x0, symName: __ZNSt3__14pairIKxxEC1B7v160006IJRS1_EJEEENS_21piecewise_construct_tENS_5tupleIJDpT_EEENS6_IJDpT0_EEE, symObjAddr: 0x52A8, symBinAddr: 0x100005D10, symSize: 0x44 }
  - { offsetInCU: 0x152A0, offset: 0x152A0, size: 0x8, addend: 0x0, symName: __ZNSt3__14pairIKxxEC1B7v160006IJRS1_EJEJLm0EEJEEENS_21piecewise_construct_tERNS_5tupleIJDpT_EEERNS6_IJDpT0_EEENS_15__tuple_indicesIJXspT1_EEEENSF_IJXspT2_EEEE, symObjAddr: 0x52EC, symBinAddr: 0x100005D54, symSize: 0x3C }
  - { offsetInCU: 0x15330, offset: 0x15330, size: 0x8, addend: 0x0, symName: __ZNSt3__14pairIKxxEC2B7v160006IJRS1_EJEJLm0EEJEEENS_21piecewise_construct_tERNS_5tupleIJDpT_EEERNS6_IJDpT0_EEENS_15__tuple_indicesIJXspT1_EEEENSF_IJXspT2_EEEE, symObjAddr: 0x5328, symBinAddr: 0x100005D90, symSize: 0x48 }
  - { offsetInCU: 0x153C0, offset: 0x153C0, size: 0x8, addend: 0x0, symName: __ZNSt3__112__tuple_leafILm0ERKxLb0EE3getB7v160006Ev, symObjAddr: 0x5394, symBinAddr: 0x100005DFC, symSize: 0x18 }
  - { offsetInCU: 0x153E6, offset: 0x153E6, size: 0x8, addend: 0x0, symName: __ZNKSt3__117__compressed_pairIPNS_11__tree_nodeINS_12__value_typeIxxEEPvEENS_22__tree_node_destructorINS_9allocatorIS5_EEEEE5firstB7v160006Ev, symObjAddr: 0x53AC, symBinAddr: 0x100005E14, symSize: 0x24 }
  - { offsetInCU: 0x1540C, offset: 0x1540C, size: 0x8, addend: 0x0, symName: __ZNKSt3__122__compressed_pair_elemIPNS_11__tree_nodeINS_12__value_typeIxxEEPvEELi0ELb0EE5__getB7v160006Ev, symObjAddr: 0x53D0, symBinAddr: 0x100005E38, symSize: 0x14 }
  - { offsetInCU: 0x15432, offset: 0x15432, size: 0x8, addend: 0x0, symName: __ZNSt3__117__compressed_pairIPNS_11__tree_nodeINS_12__value_typeIxxEEPvEENS_22__tree_node_destructorINS_9allocatorIS5_EEEEE6secondB7v160006Ev, symObjAddr: 0x53E4, symBinAddr: 0x100005E4C, symSize: 0x28 }
  - { offsetInCU: 0x15458, offset: 0x15458, size: 0x8, addend: 0x0, symName: __ZNSt3__122__compressed_pair_elemINS_22__tree_node_destructorINS_9allocatorINS_11__tree_nodeINS_12__value_typeIxxEEPvEEEEEELi1ELb0EE5__getB7v160006Ev, symObjAddr: 0x540C, symBinAddr: 0x100005E74, symSize: 0x14 }
  - { offsetInCU: 0x1547E, offset: 0x1547E, size: 0x8, addend: 0x0, symName: __ZNSt3__16__treeINS_12__value_typeIxxEENS_19__map_value_compareIxS2_NS_4lessIxEELb1EEENS_9allocatorIS2_EEE4sizeB7v160006Ev, symObjAddr: 0x574C, symBinAddr: 0x1000061B4, symSize: 0x28 }
  - { offsetInCU: 0x154A4, offset: 0x154A4, size: 0x8, addend: 0x0, symName: __ZNKSt3__116__tree_node_baseIPvE15__parent_unsafeB7v160006Ev, symObjAddr: 0x5774, symBinAddr: 0x1000061DC, symSize: 0x18 }
  - { offsetInCU: 0x154CA, offset: 0x154CA, size: 0x8, addend: 0x0, symName: __ZNSt3__116__tree_node_baseIPvE12__set_parentB7v160006EPS2_, symObjAddr: 0x595C, symBinAddr: 0x1000063C4, symSize: 0x20 }
  - { offsetInCU: 0x154FF, offset: 0x154FF, size: 0x8, addend: 0x0, symName: __ZNSt3__117__compressed_pairImNS_19__map_value_compareIxNS_12__value_typeIxxEENS_4lessIxEELb1EEEE5firstB7v160006Ev, symObjAddr: 0x597C, symBinAddr: 0x1000063E4, symSize: 0x24 }
  - { offsetInCU: 0x15525, offset: 0x15525, size: 0x8, addend: 0x0, symName: __ZNSt3__117__compressed_pairIPNS_11__tree_nodeINS_12__value_typeIxxEEPvEENS_22__tree_node_destructorINS_9allocatorIS5_EEEEE5firstB7v160006Ev, symObjAddr: 0x59A0, symBinAddr: 0x100006408, symSize: 0x24 }
  - { offsetInCU: 0x1554B, offset: 0x1554B, size: 0x8, addend: 0x0, symName: __ZNSt3__122__compressed_pair_elemIPNS_11__tree_nodeINS_12__value_typeIxxEEPvEELi0ELb0EE5__getB7v160006Ev, symObjAddr: 0x59C4, symBinAddr: 0x10000642C, symSize: 0x14 }
  - { offsetInCU: 0x15571, offset: 0x15571, size: 0x8, addend: 0x0, symName: __ZNSt3__110unique_ptrINS_11__tree_nodeINS_12__value_typeIxxEEPvEENS_22__tree_node_destructorINS_9allocatorIS5_EEEEED2B7v160006Ev, symObjAddr: 0x59D8, symBinAddr: 0x100006440, symSize: 0x30 }
  - { offsetInCU: 0x1559B, offset: 0x1559B, size: 0x8, addend: 0x0, symName: __ZNSt3__110unique_ptrINS_11__tree_nodeINS_12__value_typeIxxEEPvEENS_22__tree_node_destructorINS_9allocatorIS5_EEEEE5resetB7v160006EPS5_, symObjAddr: 0x5A08, symBinAddr: 0x100006470, symSize: 0x78 }
  - { offsetInCU: 0x155DF, offset: 0x155DF, size: 0x8, addend: 0x0, symName: __ZNSt3__122__tree_node_destructorINS_9allocatorINS_11__tree_nodeINS_12__value_typeIxxEEPvEEEEEclB7v160006EPS6_, symObjAddr: 0x5A80, symBinAddr: 0x1000064E8, symSize: 0x94 }
  - { offsetInCU: 0x15614, offset: 0x15614, size: 0x8, addend: 0x0, symName: __ZNSt3__115__tree_iteratorINS_12__value_typeIxxEEPNS_11__tree_nodeIS2_PvEElEC2B7v160006ES6_, symObjAddr: 0x5B14, symBinAddr: 0x10000657C, symSize: 0x20 }
  - { offsetInCU: 0x1564D, offset: 0x1564D, size: 0x8, addend: 0x0, symName: __ZNSt3__14pairINS_15__tree_iteratorINS_12__value_typeIxxEEPNS_11__tree_nodeIS3_PvEElEEbEC2B7v160006IS8_RbLS5_0EEEOT_OT0_, symObjAddr: 0x5B34, symBinAddr: 0x10000659C, symSize: 0x38 }
  - { offsetInCU: 0x156AB, offset: 0x156AB, size: 0x8, addend: 0x0, symName: __ZNSt3__15tupleIJRKxEEC1B7v160006INS_4_AndELi0EEES2_, symObjAddr: 0x5B6C, symBinAddr: 0x1000065D4, symSize: 0x34 }
  - { offsetInCU: 0x156F3, offset: 0x156F3, size: 0x8, addend: 0x0, symName: __ZNSt3__15tupleIJRKxEEC2B7v160006INS_4_AndELi0EEES2_, symObjAddr: 0x5BA0, symBinAddr: 0x100006608, symSize: 0x34 }
  - { offsetInCU: 0x1573B, offset: 0x1573B, size: 0x8, addend: 0x0, symName: __ZNSt3__112__tuple_implINS_15__tuple_indicesIJLm0EEEEJRKxEEC1B7v160006IJLm0EEJS4_EJEJEJS4_EEENS1_IJXspT_EEEENS_13__tuple_typesIJDpT0_EEENS1_IJXspT1_EEEENS8_IJDpT2_EEEDpOT3_, symObjAddr: 0x5BD4, symBinAddr: 0x10000663C, symSize: 0x34 }
  - { offsetInCU: 0x157D0, offset: 0x157D0, size: 0x8, addend: 0x0, symName: __ZNSt3__112__tuple_implINS_15__tuple_indicesIJLm0EEEEJRKxEEC2B7v160006IJLm0EEJS4_EJEJEJS4_EEENS1_IJXspT_EEEENS_13__tuple_typesIJDpT0_EEENS1_IJXspT1_EEEENS8_IJDpT2_EEEDpOT3_, symObjAddr: 0x5C08, symBinAddr: 0x100006670, symSize: 0x34 }
  - { offsetInCU: 0x15865, offset: 0x15865, size: 0x8, addend: 0x0, symName: __ZNSt3__112__tuple_leafILm0ERKxLb0EEC2B7v160006IS2_vEEOT_, symObjAddr: 0x5C3C, symBinAddr: 0x1000066A4, symSize: 0x20 }
  - { offsetInCU: 0x158A8, offset: 0x158A8, size: 0x8, addend: 0x0, symName: __ZNSt3__114pointer_traitsIPNS_12__value_typeIxxEEE10pointer_toB7v160006ERS2_, symObjAddr: 0x5C5C, symBinAddr: 0x1000066C4, symSize: 0x14 }
  - { offsetInCU: 0x158CB, offset: 0x158CB, size: 0x8, addend: 0x0, symName: __ZNKSt3__115__tree_iteratorINS_12__value_typeIxxEEPNS_11__tree_nodeIS2_PvEElE8__get_npB7v160006Ev, symObjAddr: 0x5C70, symBinAddr: 0x1000066D8, symSize: 0x18 }
  - { offsetInCU: 0x158F1, offset: 0x158F1, size: 0x8, addend: 0x0, symName: __ZNSt3__16__treeINS_12__value_typeIxxEENS_19__map_value_compareIxS2_NS_4lessIxEELb1EEENS_9allocatorIS2_EEE4findIxEENS_15__tree_iteratorIS2_PNS_11__tree_nodeIS2_PvEElEERKT_, symObjAddr: 0x5C88, symBinAddr: 0x1000066F0, symSize: 0xF8 }
  - { offsetInCU: 0x15940, offset: 0x15940, size: 0x8, addend: 0x0, symName: __ZNSt3__114__map_iteratorINS_15__tree_iteratorINS_12__value_typeIxxEEPNS_11__tree_nodeIS3_PvEElEEEC1B7v160006ES8_, symObjAddr: 0x5D80, symBinAddr: 0x1000067E8, symSize: 0x34 }
  - { offsetInCU: 0x15979, offset: 0x15979, size: 0x8, addend: 0x0, symName: __ZNSt3__16__treeINS_12__value_typeIxxEENS_19__map_value_compareIxS2_NS_4lessIxEELb1EEENS_9allocatorIS2_EEE13__lower_boundIxEENS_15__tree_iteratorIS2_PNS_11__tree_nodeIS2_PvEElEERKT_SF_PNS_15__tree_end_nodeIPNS_16__tree_node_baseISD_EEEE, symObjAddr: 0x5DB4, symBinAddr: 0x10000681C, symSize: 0xA4 }
  - { offsetInCU: 0x159D7, offset: 0x159D7, size: 0x8, addend: 0x0, symName: __ZNSt3__16__treeINS_12__value_typeIxxEENS_19__map_value_compareIxS2_NS_4lessIxEELb1EEENS_9allocatorIS2_EEE3endB7v160006Ev, symObjAddr: 0x5E8C, symBinAddr: 0x1000068F4, symSize: 0x34 }
  - { offsetInCU: 0x159FD, offset: 0x159FD, size: 0x8, addend: 0x0, symName: __ZNKSt3__115__tree_iteratorINS_12__value_typeIxxEEPNS_11__tree_nodeIS2_PvEElEdeB7v160006Ev, symObjAddr: 0x5EC0, symBinAddr: 0x100006928, symSize: 0x28 }
  - { offsetInCU: 0x15A23, offset: 0x15A23, size: 0x8, addend: 0x0, symName: __ZNSt3__115__tree_iteratorINS_12__value_typeIxxEEPNS_11__tree_nodeIS2_PvEElEC1B7v160006EPNS_15__tree_end_nodeIPNS_16__tree_node_baseIS4_EEEE, symObjAddr: 0x5EE8, symBinAddr: 0x100006950, symSize: 0x34 }
  - { offsetInCU: 0x15A5C, offset: 0x15A5C, size: 0x8, addend: 0x0, symName: __ZNSt3__115__tree_iteratorINS_12__value_typeIxxEEPNS_11__tree_nodeIS2_PvEElEC2B7v160006EPNS_15__tree_end_nodeIPNS_16__tree_node_baseIS4_EEEE, symObjAddr: 0x5F1C, symBinAddr: 0x100006984, symSize: 0x20 }
  - { offsetInCU: 0x15A95, offset: 0x15A95, size: 0x8, addend: 0x0, symName: __ZNSt3__114__map_iteratorINS_15__tree_iteratorINS_12__value_typeIxxEEPNS_11__tree_nodeIS3_PvEElEEEC2B7v160006ES8_, symObjAddr: 0x5F6C, symBinAddr: 0x1000069D4, symSize: 0x20 }
  - { offsetInCU: 0x15ACE, offset: 0x15ACE, size: 0x8, addend: 0x0, symName: __ZNSt3__111char_traitsIcE6lengthEPKc, symObjAddr: 0x6178, symBinAddr: 0x100006BE0, symSize: 0x34 }
  - { offsetInCU: 0x15B0F, offset: 0x15B0F, size: 0x8, addend: 0x0, symName: __ZNKSt3__113basic_ostreamIcNS_11char_traitsIcEEE6sentrycvbB7v160006Ev, symObjAddr: 0x61AC, symBinAddr: 0x100006C14, symSize: 0x1C }
  - { offsetInCU: 0x15B35, offset: 0x15B35, size: 0x8, addend: 0x0, symName: __ZNSt3__119ostreambuf_iteratorIcNS_11char_traitsIcEEEC1B7v160006ERNS_13basic_ostreamIcS2_EE, symObjAddr: 0x6408, symBinAddr: 0x100006E70, symSize: 0x34 }
  - { offsetInCU: 0x15B6D, offset: 0x15B6D, size: 0x8, addend: 0x0, symName: __ZNKSt3__18ios_base5flagsB7v160006Ev, symObjAddr: 0x643C, symBinAddr: 0x100006EA4, symSize: 0x18 }
  - { offsetInCU: 0x15B95, offset: 0x15B95, size: 0x8, addend: 0x0, symName: __ZNKSt3__19basic_iosIcNS_11char_traitsIcEEE4fillB7v160006Ev, symObjAddr: 0x6454, symBinAddr: 0x100006EBC, symSize: 0x64 }
  - { offsetInCU: 0x15BBD, offset: 0x15BBD, size: 0x8, addend: 0x0, symName: __ZNKSt3__119ostreambuf_iteratorIcNS_11char_traitsIcEEE6failedB7v160006Ev, symObjAddr: 0x64B8, symBinAddr: 0x100006F20, symSize: 0x24 }
  - { offsetInCU: 0x15BE3, offset: 0x15BE3, size: 0x8, addend: 0x0, symName: __ZNSt3__19basic_iosIcNS_11char_traitsIcEEE8setstateB7v160006Ej, symObjAddr: 0x64DC, symBinAddr: 0x100006F44, symSize: 0x2C }
  - { offsetInCU: 0x15C18, offset: 0x15C18, size: 0x8, addend: 0x0, symName: __ZNKSt3__18ios_base5widthB7v160006Ev, symObjAddr: 0x6508, symBinAddr: 0x100006F70, symSize: 0x18 }
  - { offsetInCU: 0x15C40, offset: 0x15C40, size: 0x8, addend: 0x0, symName: __ZNSt3__115basic_streambufIcNS_11char_traitsIcEEE5sputnB7v160006EPKcl, symObjAddr: 0x6520, symBinAddr: 0x100006F88, symSize: 0x3C }
  - { offsetInCU: 0x15C82, offset: 0x15C82, size: 0x8, addend: 0x0, symName: __ZNSt3__112basic_stringIcNS_11char_traitsIcEENS_9allocatorIcEEEC1B7v160006Emc, symObjAddr: 0x655C, symBinAddr: 0x100006FC4, symSize: 0x3C }
  - { offsetInCU: 0x15CCA, offset: 0x15CCA, size: 0x8, addend: 0x0, symName: __ZNKSt3__112basic_stringIcNS_11char_traitsIcEENS_9allocatorIcEEE4dataB7v160006Ev, symObjAddr: 0x6598, symBinAddr: 0x100007000, symSize: 0x28 }
  - { offsetInCU: 0x15CF0, offset: 0x15CF0, size: 0x8, addend: 0x0, symName: __ZNSt3__18ios_base5widthB7v160006El, symObjAddr: 0x65C0, symBinAddr: 0x100007028, symSize: 0x2C }
  - { offsetInCU: 0x15D36, offset: 0x15D36, size: 0x8, addend: 0x0, symName: __ZNSt3__112basic_stringIcNS_11char_traitsIcEENS_9allocatorIcEEEC2B7v160006Emc, symObjAddr: 0x65EC, symBinAddr: 0x100007054, symSize: 0x54 }
  - { offsetInCU: 0x15D7E, offset: 0x15D7E, size: 0x8, addend: 0x0, symName: __ZNSt3__117__compressed_pairINS_12basic_stringIcNS_11char_traitsIcEENS_9allocatorIcEEE5__repES5_EC1B7v160006INS_18__default_init_tagESA_EEOT_OT0_, symObjAddr: 0x6640, symBinAddr: 0x1000070A8, symSize: 0x3C }
  - { offsetInCU: 0x15DD6, offset: 0x15DD6, size: 0x8, addend: 0x0, symName: __ZNSt3__117__compressed_pairINS_12basic_stringIcNS_11char_traitsIcEENS_9allocatorIcEEE5__repES5_EC2B7v160006INS_18__default_init_tagESA_EEOT_OT0_, symObjAddr: 0x668C, symBinAddr: 0x1000070F4, symSize: 0x3C }
  - { offsetInCU: 0x15E2E, offset: 0x15E2E, size: 0x8, addend: 0x0, symName: __ZNSt3__122__compressed_pair_elemINS_12basic_stringIcNS_11char_traitsIcEENS_9allocatorIcEEE5__repELi0ELb0EEC2B7v160006ENS_18__default_init_tagE, symObjAddr: 0x66C8, symBinAddr: 0x100007130, symSize: 0x14 }
  - { offsetInCU: 0x15E63, offset: 0x15E63, size: 0x8, addend: 0x0, symName: __ZNSt3__122__compressed_pair_elemINS_9allocatorIcEELi1ELb1EEC2B7v160006ENS_18__default_init_tagE, symObjAddr: 0x66DC, symBinAddr: 0x100007144, symSize: 0x2C }
  - { offsetInCU: 0x15E98, offset: 0x15E98, size: 0x8, addend: 0x0, symName: __ZNSt3__19allocatorIcEC2B7v160006Ev, symObjAddr: 0x6708, symBinAddr: 0x100007170, symSize: 0x2C }
  - { offsetInCU: 0x15EC2, offset: 0x15EC2, size: 0x8, addend: 0x0, symName: __ZNSt3__116__non_trivial_ifILb1ENS_9allocatorIcEEEC2B7v160006Ev, symObjAddr: 0x6734, symBinAddr: 0x10000719C, symSize: 0x14 }
  - { offsetInCU: 0x15EEC, offset: 0x15EEC, size: 0x8, addend: 0x0, symName: __ZNKSt3__112basic_stringIcNS_11char_traitsIcEENS_9allocatorIcEEE13__get_pointerB7v160006Ev, symObjAddr: 0x675C, symBinAddr: 0x1000071C4, symSize: 0x54 }
  - { offsetInCU: 0x15F12, offset: 0x15F12, size: 0x8, addend: 0x0, symName: __ZNKSt3__112basic_stringIcNS_11char_traitsIcEENS_9allocatorIcEEE9__is_longB7v160006Ev, symObjAddr: 0x67B0, symBinAddr: 0x100007218, symSize: 0x38 }
  - { offsetInCU: 0x15F38, offset: 0x15F38, size: 0x8, addend: 0x0, symName: __ZNKSt3__112basic_stringIcNS_11char_traitsIcEENS_9allocatorIcEEE18__get_long_pointerB7v160006Ev, symObjAddr: 0x67E8, symBinAddr: 0x100007250, symSize: 0x28 }
  - { offsetInCU: 0x15F5E, offset: 0x15F5E, size: 0x8, addend: 0x0, symName: __ZNKSt3__112basic_stringIcNS_11char_traitsIcEENS_9allocatorIcEEE19__get_short_pointerB7v160006Ev, symObjAddr: 0x6810, symBinAddr: 0x100007278, symSize: 0x28 }
  - { offsetInCU: 0x15F84, offset: 0x15F84, size: 0x8, addend: 0x0, symName: __ZNKSt3__117__compressed_pairINS_12basic_stringIcNS_11char_traitsIcEENS_9allocatorIcEEE5__repES5_E5firstB7v160006Ev, symObjAddr: 0x6838, symBinAddr: 0x1000072A0, symSize: 0x24 }
  - { offsetInCU: 0x15FAA, offset: 0x15FAA, size: 0x8, addend: 0x0, symName: __ZNKSt3__122__compressed_pair_elemINS_12basic_stringIcNS_11char_traitsIcEENS_9allocatorIcEEE5__repELi0ELb0EE5__getB7v160006Ev, symObjAddr: 0x685C, symBinAddr: 0x1000072C4, symSize: 0x14 }
  - { offsetInCU: 0x15FD0, offset: 0x15FD0, size: 0x8, addend: 0x0, symName: __ZNSt3__114pointer_traitsIPKcE10pointer_toB7v160006ERS1_, symObjAddr: 0x6870, symBinAddr: 0x1000072D8, symSize: 0x14 }
  - { offsetInCU: 0x15FF3, offset: 0x15FF3, size: 0x8, addend: 0x0, symName: __ZNSt3__119ostreambuf_iteratorIcNS_11char_traitsIcEEEC2B7v160006ERNS_13basic_ostreamIcS2_EE, symObjAddr: 0x6884, symBinAddr: 0x1000072EC, symSize: 0x54 }
  - { offsetInCU: 0x1602B, offset: 0x1602B, size: 0x8, addend: 0x0, symName: __ZNKSt3__19basic_iosIcNS_11char_traitsIcEEE5rdbufB7v160006Ev, symObjAddr: 0x68D8, symBinAddr: 0x100007340, symSize: 0x24 }
  - { offsetInCU: 0x16053, offset: 0x16053, size: 0x8, addend: 0x0, symName: __ZNKSt3__18ios_base5rdbufB7v160006Ev, symObjAddr: 0x68FC, symBinAddr: 0x100007364, symSize: 0x18 }
  - { offsetInCU: 0x16079, offset: 0x16079, size: 0x8, addend: 0x0, symName: __ZNSt3__111char_traitsIcE11eq_int_typeEii, symObjAddr: 0x6914, symBinAddr: 0x10000737C, symSize: 0x28 }
  - { offsetInCU: 0x160AA, offset: 0x160AA, size: 0x8, addend: 0x0, symName: __ZNSt3__111char_traitsIcE3eofEv, symObjAddr: 0x693C, symBinAddr: 0x1000073A4, symSize: 0x8 }
  - { offsetInCU: 0x160BE, offset: 0x160BE, size: 0x8, addend: 0x0, symName: __ZNKSt3__19basic_iosIcNS_11char_traitsIcEEE5widenB7v160006Ec, symObjAddr: 0x6944, symBinAddr: 0x1000073AC, symSize: 0x84 }
  - { offsetInCU: 0x1612C, offset: 0x1612C, size: 0x8, addend: 0x0, symName: __ZNKSt3__15ctypeIcE5widenB7v160006Ec, symObjAddr: 0x69F4, symBinAddr: 0x10000745C, symSize: 0x38 }
  - { offsetInCU: 0x16161, offset: 0x16161, size: 0x8, addend: 0x0, symName: __ZNSt3__18ios_base8setstateB7v160006Ej, symObjAddr: 0x6A2C, symBinAddr: 0x100007494, symSize: 0x34 }
...
